
There are no discarded input sections

Memory Configuration

Name             Origin             Length             Attributes
*default*        0x0000000000000000 0xffffffffffffffff

Linker script and memory map

LOAD /tmp/ccNzzYqe.o
LOAD /tmp/cc1FN0fh.o
LOAD /tmp/ccT5uqZd.o
LOAD /tmp/cce8pPhh.o
LOAD /tmp/ccN4l4df.o
LOAD /tmp/cc2frwoe.o
LOAD /opt/riscv-vector/lib/gcc/riscv64-unknown-elf/15.1.0/../../../../riscv64-unknown-elf/lib/libm.a
LOAD /opt/riscv-vector/lib/gcc/riscv64-unknown-elf/15.1.0/libgcc.a
                0x0000000080000000                . = 0x80000000

.text.init      0x0000000080000000      0x1ca
 *(.text.init)
 .text.init     0x0000000080000000      0x1ca /tmp/cc2frwoe.o
                0x0000000080000000                _start
                0x0000000080001000                . = ALIGN (0x1000)

.tohost         0x0000000080001000       0x48
 *(.tohost)
 .tohost        0x0000000080001000       0x48 /tmp/cc2frwoe.o
                0x0000000080001000                tohost
                0x0000000080001040                fromhost
                0x0000000080002000                . = ALIGN (0x1000)

.text           0x0000000080002000      0xde0
 *(.text)
 .text          0x0000000080002000       0x96 /tmp/ccNzzYqe.o
                0x0000000080002000                npu_proc
                0x000000008000204a                start_npu
 .text          0x0000000080002096      0x210 /tmp/cc1FN0fh.o
                0x0000000080002096                as_uint
                0x000000008000209e                as_float
                0x00000000800020a4                half_to_float
                0x0000000080002110                float_to_half
                0x0000000080002150                float_to_half_array
                0x00000000800021a0                half_to_float_array
                0x00000000800021da                half_add
                0x00000000800021fc                half_sub
                0x000000008000221e                half_mul
                0x0000000080002240                half_div
                0x0000000080002262                half_min
                0x0000000080002284                half_max
 .text          0x00000000800022a6       0xde /tmp/ccT5uqZd.o
                0x00000000800022a6                open
                0x00000000800022d0                close
                0x00000000800022ee                lseek
                0x0000000080002320                read
                0x0000000080002352                write
 .text          0x0000000080002384      0x92e /tmp/cce8pPhh.o
                0x00000000800023ec                putchar
                0x0000000080002900                setStats
                0x000000008000293a                tohost_exit
                0x000000008000294c                handle_trap
                0x000000008000295c                exit
                0x0000000080002964                printstr
                0x000000008000297c                thread_entry
                0x0000000080002982                printhex
                0x00000000800029c2                printf
                0x00000000800029f4                sprintf
                0x0000000080002a34                memcpy
                0x0000000080002ae0                memset
                0x0000000080002b26                _init
                0x0000000080002bba                strlen
                0x0000000080002bd4                strnlen
                0x0000000080002bf4                strcmp
                0x0000000080002c10                strcpy
                0x0000000080002c22                atol
 .text          0x0000000080002cb2      0x12e /tmp/ccN4l4df.o
                0x0000000080002cec                malloc_stats
                0x0000000080002d2e                malloc
                0x0000000080002d96                free
                0x0000000080002dda                init_malloc
 .text          0x0000000080002de0        0x0 /tmp/cc2frwoe.o

.text.startup   0x0000000080002de0       0x9a
 .text.startup  0x0000000080002de0       0x62 /tmp/ccNzzYqe.o
                0x0000000080002de0                main
 .text.startup  0x0000000080002e42       0x38 /tmp/cce8pPhh.o

.text.unlikely  0x0000000080002e7a        0xe
 .text.unlikely
                0x0000000080002e7a        0xe /tmp/cce8pPhh.o
                0x0000000080002e7a                abort

.data           0x0000000080002e88       0x10
 *(.data)
 .data          0x0000000080002e88       0x10 /tmp/ccNzzYqe.o
                0x0000000080002e88                g_busys
 .data          0x0000000080002e98        0x0 /tmp/cc1FN0fh.o
 .data          0x0000000080002e98        0x0 /tmp/ccT5uqZd.o
 .data          0x0000000080002e98        0x0 /tmp/cce8pPhh.o
 .data          0x0000000080002e98        0x0 /tmp/ccN4l4df.o
 .data          0x0000000080002e98        0x0 /tmp/cc2frwoe.o

.sdata          0x0000000080002e98        0x8
                0x0000000080003698                __global_pointer$ = (. + 0x800)
 *(.srodata.cst16)
 *(.srodata.cst8)
 *(.srodata.cst4)
 .srodata.cst4  0x0000000080002e98        0x8 /tmp/cce8pPhh.o
 *(.srodata.cst2)
 *(.srodata)
 *(.sdata .sdata* .gnu.linkonce.s.*)

.rodata.str1.8  0x0000000080002ea0      0x148
 .rodata.str1.8
                0x0000000080002ea0      0x148 /tmp/ccNzzYqe.o
                                         0x77 (size before relaxing)
 .rodata.str1.8
                0x0000000080002fe8       0x61 /tmp/cce8pPhh.o
 .rodata.str1.8
                0x0000000080002fe8       0x60 /tmp/ccN4l4df.o

.rodata         0x0000000080002fe8      0x158
 .rodata        0x0000000080002fe8      0x158 /tmp/cce8pPhh.o

.rela.dyn       0x0000000080003140        0x0
 .rela.text     0x0000000080003140        0x0 /tmp/ccNzzYqe.o
 .rela.text.init
                0x0000000080003140        0x0 /tmp/ccNzzYqe.o

.sbss           0x0000000080003140       0x10
 *(.sbss .sbss.* .gnu.linkonce.sb.*)
 .sbss          0x0000000080003140        0x4 /tmp/cce8pPhh.o
                0x0000000080003140                syscall_lock
 *fill*         0x0000000080003144        0x4 
 .sbss          0x0000000080003148        0x8 /tmp/ccN4l4df.o
 *(.scommon)

.bss            0x0000000080003150       0x20
 *(.bss)
 .bss           0x0000000080003150        0x0 /tmp/ccNzzYqe.o
 .bss           0x0000000080003150        0x0 /tmp/cc1FN0fh.o
 .bss           0x0000000080003150        0x0 /tmp/ccT5uqZd.o
 .bss           0x0000000080003150       0x20 /tmp/cce8pPhh.o
 .bss           0x0000000080003170        0x0 /tmp/ccN4l4df.o
 .bss           0x0000000080003170        0x0 /tmp/cc2frwoe.o

.tdata          0x0000000080003170        0x0
                0x0000000080003170                _tdata_begin = .
 *(.tdata)
                0x0000000080003170                _tdata_end = .

.tbss           0x0000000080003180       0x44
 *(.tbss)
 .tbss          0x0000000080003180       0x44 /tmp/cce8pPhh.o
                0x00000000800031c4                _tbss_end = .
                0x0000000080003180                _end = .
OUTPUT(llm.riscv elf64-littleriscv)

.comment        0x0000000000000000       0x1b
 .comment       0x0000000000000000       0x1b /tmp/ccNzzYqe.o
                                         0x1c (size before relaxing)
 .comment       0x000000000000001b       0x1c /tmp/cc1FN0fh.o
 .comment       0x000000000000001b       0x1c /tmp/ccT5uqZd.o
 .comment       0x000000000000001b       0x1c /tmp/cce8pPhh.o
 .comment       0x000000000000001b       0x1c /tmp/ccN4l4df.o

.note.GNU-stack
                0x0000000000000000        0x0
 .note.GNU-stack
                0x0000000000000000        0x0 /tmp/ccNzzYqe.o
 .note.GNU-stack
                0x0000000000000000        0x0 /tmp/cc1FN0fh.o
 .note.GNU-stack
                0x0000000000000000        0x0 /tmp/ccT5uqZd.o
 .note.GNU-stack
                0x0000000000000000        0x0 /tmp/cce8pPhh.o
 .note.GNU-stack
                0x0000000000000000        0x0 /tmp/ccN4l4df.o

.riscv.attributes
                0x0000000000000000       0x6c
 .riscv.attributes
                0x0000000000000000       0x6c /tmp/ccNzzYqe.o
 .riscv.attributes
                0x000000000000006c       0x68 /tmp/cc1FN0fh.o
 .riscv.attributes
                0x00000000000000d4       0x68 /tmp/ccT5uqZd.o
 .riscv.attributes
                0x000000000000013c       0x6c /tmp/cce8pPhh.o
 .riscv.attributes
                0x00000000000001a8       0x68 /tmp/ccN4l4df.o
 .riscv.attributes
                0x0000000000000210       0x6a /tmp/cc2frwoe.o
