
There are no discarded input sections

Memory Configuration

Name             Origin             Length             Attributes
*default*        0x0000000000000000 0xffffffffffffffff

Linker script and memory map

LOAD /tmp/cc78PcbC.o
LOAD /tmp/ccVpgjNA.o
LOAD /tmp/ccYqARoD.o
LOAD /tmp/cc1ymssz.o
LOAD /tmp/ccDgMH0y.o
LOAD /tmp/ccyDPtjz.o
LOAD /opt/riscv-vector/lib/gcc/riscv64-unknown-elf/15.1.0/../../../../riscv64-unknown-elf/lib/libm.a
LOAD /opt/riscv-vector/lib/gcc/riscv64-unknown-elf/15.1.0/libgcc.a
                0x0000000080000000                . = 0x80000000

.text.init      0x0000000080000000      0x1ca
 *(.text.init)
 .text.init     0x0000000080000000      0x1ca /tmp/ccyDPtjz.o
                0x0000000080000000                _start
                0x0000000080001000                . = ALIGN (0x1000)

.tohost         0x0000000080001000       0x48
 *(.tohost)
 .tohost        0x0000000080001000       0x48 /tmp/ccyDPtjz.o
                0x0000000080001000                tohost
                0x0000000080001040                fromhost
                0x0000000080002000                . = ALIGN (0x1000)

.text           0x0000000080002000      0xaba
 *(.text)
 .text          0x0000000080002000        0x0 /tmp/cc78PcbC.o
 .text          0x0000000080002000      0x210 /tmp/ccVpgjNA.o
                0x0000000080002000                as_uint
                0x0000000080002008                as_float
                0x000000008000200e                half_to_float
                0x000000008000207a                float_to_half
                0x00000000800020ba                float_to_half_array
                0x000000008000210a                half_to_float_array
                0x0000000080002144                half_add
                0x0000000080002166                half_sub
                0x0000000080002188                half_mul
                0x00000000800021aa                half_div
                0x00000000800021cc                half_min
                0x00000000800021ee                half_max
 .text          0x0000000080002210       0xde /tmp/ccYqARoD.o
                0x0000000080002210                open
                0x000000008000223a                close
                0x0000000080002258                lseek
                0x000000008000228a                read
                0x00000000800022bc                write
 .text          0x00000000800022ee      0x682 /tmp/cc1ymssz.o
                0x000000008000235a                putchar
                0x00000000800025ca                setStats
                0x0000000080002608                tohost_exit
                0x000000008000261a                handle_trap
                0x000000008000262a                exit
                0x0000000080002632                printstr
                0x000000008000264a                thread_entry
                0x0000000080002650                printhex
                0x0000000080002690                printf
                0x00000000800026c2                sprintf
                0x0000000080002702                memcpy
                0x00000000800027ae                memset
                0x00000000800027f4                _init
                0x0000000080002898                strlen
                0x00000000800028b2                strcmp
                0x00000000800028ce                strcpy
                0x00000000800028e0                atol
 .text          0x0000000080002970      0x14a /tmp/ccDgMH0y.o
                0x00000000800029b2                malloc_stats
                0x00000000800029f8                malloc
                0x0000000080002a6c                free
                0x0000000080002ab4                init_malloc
 .text          0x0000000080002aba        0x0 /tmp/ccyDPtjz.o

.text.startup   0x0000000080002aba       0x6c
 .text.startup  0x0000000080002aba       0x34 /tmp/cc78PcbC.o
                0x0000000080002aba                main
 .text.startup  0x0000000080002aee       0x38 /tmp/cc1ymssz.o

.text.unlikely  0x0000000080002b26        0xe
 .text.unlikely
                0x0000000080002b26        0xe /tmp/cc1ymssz.o
                0x0000000080002b26                abort

.rodata.str1.8  0x0000000080002b38      0x108
 .rodata.str1.8
                0x0000000080002b38      0x108 /tmp/cc78PcbC.o
                                         0x40 (size before relaxing)
 .rodata.str1.8
                0x0000000080002c40       0x59 /tmp/cc1ymssz.o
 .rodata.str1.8
                0x0000000080002c40       0x60 /tmp/ccDgMH0y.o

.rodata         0x0000000080002c40       0x58
 .rodata        0x0000000080002c40       0x58 /tmp/cc1ymssz.o

.rela.dyn       0x0000000080002c98        0x0
 .rela.text     0x0000000080002c98        0x0 /tmp/cc78PcbC.o
 .rela.text.init
                0x0000000080002c98        0x0 /tmp/cc78PcbC.o

.data           0x0000000080002c98        0x0
 *(.data)
 .data          0x0000000080002c98        0x0 /tmp/cc78PcbC.o
 .data          0x0000000080002c98        0x0 /tmp/ccVpgjNA.o
 .data          0x0000000080002c98        0x0 /tmp/ccYqARoD.o
 .data          0x0000000080002c98        0x0 /tmp/cc1ymssz.o
 .data          0x0000000080002c98        0x0 /tmp/ccDgMH0y.o
 .data          0x0000000080002c98        0x0 /tmp/ccyDPtjz.o

.sdata          0x0000000080002c98        0x0
                0x0000000080003498                __global_pointer$ = (. + 0x800)
 *(.srodata.cst16)
 *(.srodata.cst8)
 *(.srodata.cst4)
 *(.srodata.cst2)
 *(.srodata)
 *(.sdata .sdata* .gnu.linkonce.s.*)

.sbss           0x0000000080002c98       0x10
 *(.sbss .sbss.* .gnu.linkonce.sb.*)
 .sbss          0x0000000080002c98        0x4 /tmp/cc1ymssz.o
                0x0000000080002c98                syscall_lock
 *fill*         0x0000000080002c9c        0x4 
 .sbss          0x0000000080002ca0        0x8 /tmp/ccDgMH0y.o
 *(.scommon)

.bss            0x0000000080002ca8       0x20
 *(.bss)
 .bss           0x0000000080002ca8        0x0 /tmp/cc78PcbC.o
 .bss           0x0000000080002ca8        0x0 /tmp/ccVpgjNA.o
 .bss           0x0000000080002ca8        0x0 /tmp/ccYqARoD.o
 .bss           0x0000000080002ca8       0x20 /tmp/cc1ymssz.o
 .bss           0x0000000080002cc8        0x0 /tmp/ccDgMH0y.o
 .bss           0x0000000080002cc8        0x0 /tmp/ccyDPtjz.o

.tdata          0x0000000080002cc8        0x0
                0x0000000080002cc8                _tdata_begin = .
 *(.tdata)
                0x0000000080002cc8                _tdata_end = .

.tbss           0x0000000080002d00       0x44
 *(.tbss)
 .tbss          0x0000000080002d00       0x44 /tmp/cc1ymssz.o
                0x0000000080002d44                _tbss_end = .
                0x0000000080002d00                _end = .
OUTPUT(hello.riscv elf64-littleriscv)

.comment        0x0000000000000000       0x1b
 .comment       0x0000000000000000       0x1b /tmp/cc78PcbC.o
                                         0x1c (size before relaxing)
 .comment       0x000000000000001b       0x1c /tmp/ccVpgjNA.o
 .comment       0x000000000000001b       0x1c /tmp/ccYqARoD.o
 .comment       0x000000000000001b       0x1c /tmp/cc1ymssz.o
 .comment       0x000000000000001b       0x1c /tmp/ccDgMH0y.o

.note.GNU-stack
                0x0000000000000000        0x0
 .note.GNU-stack
                0x0000000000000000        0x0 /tmp/cc78PcbC.o
 .note.GNU-stack
                0x0000000000000000        0x0 /tmp/ccVpgjNA.o
 .note.GNU-stack
                0x0000000000000000        0x0 /tmp/ccYqARoD.o
 .note.GNU-stack
                0x0000000000000000        0x0 /tmp/cc1ymssz.o
 .note.GNU-stack
                0x0000000000000000        0x0 /tmp/ccDgMH0y.o

.riscv.attributes
                0x0000000000000000       0x6c
 .riscv.attributes
                0x0000000000000000       0x6c /tmp/cc78PcbC.o
 .riscv.attributes
                0x000000000000006c       0x68 /tmp/ccVpgjNA.o
 .riscv.attributes
                0x00000000000000d4       0x68 /tmp/ccYqARoD.o
 .riscv.attributes
                0x000000000000013c       0x6c /tmp/cc1ymssz.o
 .riscv.attributes
                0x00000000000001a8       0x68 /tmp/ccDgMH0y.o
 .riscv.attributes
                0x0000000000000210       0x6a /tmp/ccyDPtjz.o
