
hello.riscv:     file format elf64-littleriscv


Disassembly of section .text.init:

000000003f000000 <_start>:
    3f000000:	4081                	li	ra,0
    3f000002:	4101                	li	sp,0
    3f000004:	4181                	li	gp,0
    3f000006:	4201                	li	tp,0
    3f000008:	4281                	li	t0,0
    3f00000a:	4301                	li	t1,0
    3f00000c:	4381                	li	t2,0
    3f00000e:	4401                	li	s0,0
    3f000010:	4481                	li	s1,0
    3f000012:	4501                	li	a0,0
    3f000014:	4581                	li	a1,0
    3f000016:	4601                	li	a2,0
    3f000018:	4681                	li	a3,0
    3f00001a:	4701                	li	a4,0
    3f00001c:	4781                	li	a5,0
    3f00001e:	4801                	li	a6,0
    3f000020:	4881                	li	a7,0
    3f000022:	4901                	li	s2,0
    3f000024:	4981                	li	s3,0
    3f000026:	4a01                	li	s4,0
    3f000028:	4a81                	li	s5,0
    3f00002a:	4b01                	li	s6,0
    3f00002c:	4b81                	li	s7,0
    3f00002e:	4c01                	li	s8,0
    3f000030:	4c81                	li	s9,0
    3f000032:	4d01                	li	s10,0
    3f000034:	4d81                	li	s11,0
    3f000036:	4e01                	li	t3,0
    3f000038:	4e81                	li	t4,0
    3f00003a:	4f01                	li	t5,0
    3f00003c:	4f81                	li	t6,0
    3f00003e:	62f9                	lui	t0,0x1e
    3f000040:	6002829b          	addiw	t0,t0,1536 # 1e600 <buflen.1+0x1e5c0>
    3f000044:	3002a073          	csrs	mstatus,t0
    3f000048:	4285                	li	t0,1
    3f00004a:	02fe                	slli	t0,t0,0x1f
    3f00004c:	0002d863          	bgez	t0,3f00005c <_start+0x5c>
    3f000050:	4505                	li	a0,1
    3f000052:	00001297          	auipc	t0,0x1
    3f000056:	faa2a723          	sw	a0,-82(t0) # 3f001000 <tohost>
    3f00005a:	bfdd                	j	3f000050 <_start+0x50>
    3f00005c:	00000297          	auipc	t0,0x0
    3f000060:	09028293          	addi	t0,t0,144 # 3f0000ec <_start+0xec>
    3f000064:	30529073          	csrw	mtvec,t0
    3f000068:	00301073          	fscsr	zero
    3f00006c:	f0000053          	fmv.w.x	ft0,zero
    3f000070:	f00000d3          	fmv.w.x	ft1,zero
    3f000074:	f0000153          	fmv.w.x	ft2,zero
    3f000078:	f00001d3          	fmv.w.x	ft3,zero
    3f00007c:	f0000253          	fmv.w.x	ft4,zero
    3f000080:	f00002d3          	fmv.w.x	ft5,zero
    3f000084:	f0000353          	fmv.w.x	ft6,zero
    3f000088:	f00003d3          	fmv.w.x	ft7,zero
    3f00008c:	f0000453          	fmv.w.x	fs0,zero
    3f000090:	f00004d3          	fmv.w.x	fs1,zero
    3f000094:	f0000553          	fmv.w.x	fa0,zero
    3f000098:	f00005d3          	fmv.w.x	fa1,zero
    3f00009c:	f0000653          	fmv.w.x	fa2,zero
    3f0000a0:	f00006d3          	fmv.w.x	fa3,zero
    3f0000a4:	f0000753          	fmv.w.x	fa4,zero
    3f0000a8:	f00007d3          	fmv.w.x	fa5,zero
    3f0000ac:	f0000853          	fmv.w.x	fa6,zero
    3f0000b0:	f00008d3          	fmv.w.x	fa7,zero
    3f0000b4:	f0000953          	fmv.w.x	fs2,zero
    3f0000b8:	f00009d3          	fmv.w.x	fs3,zero
    3f0000bc:	f0000a53          	fmv.w.x	fs4,zero
    3f0000c0:	f0000ad3          	fmv.w.x	fs5,zero
    3f0000c4:	f0000b53          	fmv.w.x	fs6,zero
    3f0000c8:	f0000bd3          	fmv.w.x	fs7,zero
    3f0000cc:	f0000c53          	fmv.w.x	fs8,zero
    3f0000d0:	f0000cd3          	fmv.w.x	fs9,zero
    3f0000d4:	f0000d53          	fmv.w.x	fs10,zero
    3f0000d8:	f0000dd3          	fmv.w.x	fs11,zero
    3f0000dc:	f0000e53          	fmv.w.x	ft8,zero
    3f0000e0:	f0000ed3          	fmv.w.x	ft9,zero
    3f0000e4:	f0000f53          	fmv.w.x	ft10,zero
    3f0000e8:	f0000fd3          	fmv.w.x	ft11,zero
    3f0000ec:	00000297          	auipc	t0,0x0
    3f0000f0:	03c28293          	addi	t0,t0,60 # 3f000128 <trap_entry>
    3f0000f4:	30529073          	csrw	mtvec,t0
    3f0000f8:	00003197          	auipc	gp,0x3
    3f0000fc:	4d818193          	addi	gp,gp,1240 # 3f0035d0 <__global_pointer$>
    3f000100:	00003217          	auipc	tp,0x3
    3f000104:	fbf20213          	addi	tp,tp,-65 # 3f0030bf <_end+0x3f>
    3f000108:	fc027213          	andi	tp,tp,-64
    3f00010c:	f1402573          	csrr	a0,mhartid
    3f000110:	4585                	li	a1,1
    3f000112:	00b57063          	bgeu	a0,a1,3f000112 <_start+0x112>
    3f000116:	00150113          	addi	sp,a0,1
    3f00011a:	0146                	slli	sp,sp,0x11
    3f00011c:	9112                	add	sp,sp,tp
    3f00011e:	01151613          	slli	a2,a0,0x11
    3f000122:	9232                	add	tp,tp,a2
    3f000124:	1410206f          	j	3f002a64 <_init>

000000003f000128 <trap_entry>:
    3f000128:	716d                	addi	sp,sp,-272
    3f00012a:	e406                	sd	ra,8(sp)
    3f00012c:	e80a                	sd	sp,16(sp)
    3f00012e:	ec0e                	sd	gp,24(sp)
    3f000130:	f012                	sd	tp,32(sp)
    3f000132:	f416                	sd	t0,40(sp)
    3f000134:	f81a                	sd	t1,48(sp)
    3f000136:	fc1e                	sd	t2,56(sp)
    3f000138:	e0a2                	sd	s0,64(sp)
    3f00013a:	e4a6                	sd	s1,72(sp)
    3f00013c:	e8aa                	sd	a0,80(sp)
    3f00013e:	ecae                	sd	a1,88(sp)
    3f000140:	f0b2                	sd	a2,96(sp)
    3f000142:	f4b6                	sd	a3,104(sp)
    3f000144:	f8ba                	sd	a4,112(sp)
    3f000146:	fcbe                	sd	a5,120(sp)
    3f000148:	e142                	sd	a6,128(sp)
    3f00014a:	e546                	sd	a7,136(sp)
    3f00014c:	e94a                	sd	s2,144(sp)
    3f00014e:	ed4e                	sd	s3,152(sp)
    3f000150:	f152                	sd	s4,160(sp)
    3f000152:	f556                	sd	s5,168(sp)
    3f000154:	f95a                	sd	s6,176(sp)
    3f000156:	fd5e                	sd	s7,184(sp)
    3f000158:	e1e2                	sd	s8,192(sp)
    3f00015a:	e5e6                	sd	s9,200(sp)
    3f00015c:	e9ea                	sd	s10,208(sp)
    3f00015e:	edee                	sd	s11,216(sp)
    3f000160:	f1f2                	sd	t3,224(sp)
    3f000162:	f5f6                	sd	t4,232(sp)
    3f000164:	f9fa                	sd	t5,240(sp)
    3f000166:	fdfe                	sd	t6,248(sp)
    3f000168:	34202573          	csrr	a0,mcause
    3f00016c:	341025f3          	csrr	a1,mepc
    3f000170:	860a                	mv	a2,sp
    3f000172:	718020ef          	jal	3f00288a <handle_trap>
    3f000176:	34151073          	csrw	mepc,a0
    3f00017a:	6289                	lui	t0,0x2
    3f00017c:	8002829b          	addiw	t0,t0,-2048 # 1800 <buflen.1+0x17c0>
    3f000180:	3002a073          	csrs	mstatus,t0
    3f000184:	60a2                	ld	ra,8(sp)
    3f000186:	6142                	ld	sp,16(sp)
    3f000188:	61e2                	ld	gp,24(sp)
    3f00018a:	7202                	ld	tp,32(sp)
    3f00018c:	72a2                	ld	t0,40(sp)
    3f00018e:	7342                	ld	t1,48(sp)
    3f000190:	73e2                	ld	t2,56(sp)
    3f000192:	6406                	ld	s0,64(sp)
    3f000194:	64a6                	ld	s1,72(sp)
    3f000196:	6546                	ld	a0,80(sp)
    3f000198:	65e6                	ld	a1,88(sp)
    3f00019a:	7606                	ld	a2,96(sp)
    3f00019c:	76a6                	ld	a3,104(sp)
    3f00019e:	7746                	ld	a4,112(sp)
    3f0001a0:	77e6                	ld	a5,120(sp)
    3f0001a2:	680a                	ld	a6,128(sp)
    3f0001a4:	68aa                	ld	a7,136(sp)
    3f0001a6:	694a                	ld	s2,144(sp)
    3f0001a8:	69ea                	ld	s3,152(sp)
    3f0001aa:	7a0a                	ld	s4,160(sp)
    3f0001ac:	7aaa                	ld	s5,168(sp)
    3f0001ae:	7b4a                	ld	s6,176(sp)
    3f0001b0:	7bea                	ld	s7,184(sp)
    3f0001b2:	6c0e                	ld	s8,192(sp)
    3f0001b4:	6cae                	ld	s9,200(sp)
    3f0001b6:	6d4e                	ld	s10,208(sp)
    3f0001b8:	6dee                	ld	s11,216(sp)
    3f0001ba:	7e0e                	ld	t3,224(sp)
    3f0001bc:	7eae                	ld	t4,232(sp)
    3f0001be:	7f4e                	ld	t5,240(sp)
    3f0001c0:	7fee                	ld	t6,248(sp)
    3f0001c2:	6151                	addi	sp,sp,272
    3f0001c4:	30200073          	mret
    3f0001c8:	0001                	nop

Disassembly of section .tohost:

000000003f001000 <tohost>:
	...

000000003f001040 <fromhost>:
	...

Disassembly of section .text:

000000003f002000 <as_uint>:
    3f002000:	e0050553          	fmv.x.w	a0,fa0
    3f002004:	2501                	sext.w	a0,a0
    3f002006:	8082                	ret

000000003f002008 <as_float>:
    3f002008:	f0050553          	fmv.w.x	fa0,a0
    3f00200c:	8082                	ret

000000003f00200e <half_to_float>:
    3f00200e:	00f5569b          	srliw	a3,a0,0xf
    3f002012:	00a5571b          	srliw	a4,a0,0xa
    3f002016:	01f6969b          	slliw	a3,a3,0x1f
    3f00201a:	3ff57613          	andi	a2,a0,1023
    3f00201e:	8b7d                	andi	a4,a4,31
    3f002020:	87b6                	mv	a5,a3
    3f002022:	8532                	mv	a0,a2
    3f002024:	e71d                	bnez	a4,3f002052 <half_to_float+0x44>
    3f002026:	c21d                	beqz	a2,3f00204c <half_to_float+0x3e>
    3f002028:	4705                	li	a4,1
    3f00202a:	85aa                	mv	a1,a0
    3f00202c:	0015151b          	slliw	a0,a0,0x1
    3f002030:	40057613          	andi	a2,a0,1024
    3f002034:	87ba                	mv	a5,a4
    3f002036:	377d                	addiw	a4,a4,-1
    3f002038:	da6d                	beqz	a2,3f00202a <half_to_float+0x1c>
    3f00203a:	1ff5f593          	andi	a1,a1,511
    3f00203e:	07de                	slli	a5,a5,0x17
    3f002040:	37800737          	lui	a4,0x37800
    3f002044:	05ba                	slli	a1,a1,0xe
    3f002046:	9fb9                	addw	a5,a5,a4
    3f002048:	8fcd                	or	a5,a5,a1
    3f00204a:	8fd5                	or	a5,a5,a3
    3f00204c:	f0078553          	fmv.w.x	fa0,a5
    3f002050:	8082                	ret
    3f002052:	00d6151b          	slliw	a0,a2,0xd
    3f002056:	46fd                	li	a3,31
    3f002058:	8fc9                	or	a5,a5,a0
    3f00205a:	00d70a63          	beq	a4,a3,3f00206e <half_to_float+0x60>
    3f00205e:	380006b7          	lui	a3,0x38000
    3f002062:	075e                	slli	a4,a4,0x17
    3f002064:	9736                	add	a4,a4,a3
    3f002066:	8fd9                	or	a5,a5,a4
    3f002068:	f0078553          	fmv.w.x	fa0,a5
    3f00206c:	8082                	ret
    3f00206e:	7f800737          	lui	a4,0x7f800
    3f002072:	8fd9                	or	a5,a5,a4
    3f002074:	f0078553          	fmv.w.x	fa0,a5
    3f002078:	8082                	ret

000000003f00207a <float_to_half>:
    3f00207a:	e0050753          	fmv.x.w	a4,fa0
    3f00207e:	0177579b          	srliw	a5,a4,0x17
    3f002082:	0ff7f793          	zext.b	a5,a5
    3f002086:	01f7551b          	srliw	a0,a4,0x1f
    3f00208a:	f907879b          	addiw	a5,a5,-112
    3f00208e:	053e                	slli	a0,a0,0xf
    3f002090:	02f05463          	blez	a5,3f0020b8 <float_to_half+0x3e>
    3f002094:	46f9                	li	a3,30
    3f002096:	00f6d763          	bge	a3,a5,3f0020a4 <float_to_half+0x2a>
    3f00209a:	67a1                	lui	a5,0x8
    3f00209c:	c0078793          	addi	a5,a5,-1024 # 7c00 <buflen.1+0x7bc0>
    3f0020a0:	8d5d                	or	a0,a0,a5
    3f0020a2:	8082                	ret
    3f0020a4:	00d7571b          	srliw	a4,a4,0xd
    3f0020a8:	3ff77713          	andi	a4,a4,1023
    3f0020ac:	8d59                	or	a0,a0,a4
    3f0020ae:	00a7979b          	slliw	a5,a5,0xa
    3f0020b2:	8d5d                	or	a0,a0,a5
    3f0020b4:	1542                	slli	a0,a0,0x30
    3f0020b6:	9141                	srli	a0,a0,0x30
    3f0020b8:	8082                	ret

000000003f0020ba <float_to_half_array>:
    3f0020ba:	04c05763          	blez	a2,3f002108 <float_to_half_array+0x4e>
    3f0020be:	060a                	slli	a2,a2,0x2
    3f0020c0:	6321                	lui	t1,0x8
    3f0020c2:	962e                	add	a2,a2,a1
    3f0020c4:	c0030313          	addi	t1,t1,-1024 # 7c00 <buflen.1+0x7bc0>
    3f0020c8:	48f9                	li	a7,30
    3f0020ca:	4198                	lw	a4,0(a1)
    3f0020cc:	0177579b          	srliw	a5,a4,0x17
    3f0020d0:	0ff7f793          	zext.b	a5,a5
    3f0020d4:	01f7569b          	srliw	a3,a4,0x1f
    3f0020d8:	f907879b          	addiw	a5,a5,-112
    3f0020dc:	06be                	slli	a3,a3,0xf
    3f0020de:	00f05f63          	blez	a5,3f0020fc <float_to_half_array+0x42>
    3f0020e2:	00d7571b          	srliw	a4,a4,0xd
    3f0020e6:	3ff77713          	andi	a4,a4,1023
    3f0020ea:	8f55                	or	a4,a4,a3
    3f0020ec:	00a7981b          	slliw	a6,a5,0xa
    3f0020f0:	0066e6b3          	or	a3,a3,t1
    3f0020f4:	00f8c463          	blt	a7,a5,3f0020fc <float_to_half_array+0x42>
    3f0020f8:	010766b3          	or	a3,a4,a6
    3f0020fc:	00d51023          	sh	a3,0(a0)
    3f002100:	0591                	addi	a1,a1,4
    3f002102:	0509                	addi	a0,a0,2
    3f002104:	fcc593e3          	bne	a1,a2,3f0020ca <float_to_half_array+0x10>
    3f002108:	8082                	ret

000000003f00210a <half_to_float_array>:
    3f00210a:	02c05c63          	blez	a2,3f002142 <half_to_float_array+0x38>
    3f00210e:	1101                	addi	sp,sp,-32
    3f002110:	e04a                	sd	s2,0(sp)
    3f002112:	00161913          	slli	s2,a2,0x1
    3f002116:	e822                	sd	s0,16(sp)
    3f002118:	e426                	sd	s1,8(sp)
    3f00211a:	ec06                	sd	ra,24(sp)
    3f00211c:	842e                	mv	s0,a1
    3f00211e:	992e                	add	s2,s2,a1
    3f002120:	84aa                	mv	s1,a0
    3f002122:	00045503          	lhu	a0,0(s0)
    3f002126:	0409                	addi	s0,s0,2
    3f002128:	0491                	addi	s1,s1,4
    3f00212a:	ee5ff0ef          	jal	3f00200e <half_to_float>
    3f00212e:	fea4ae27          	fsw	fa0,-4(s1)
    3f002132:	ff2418e3          	bne	s0,s2,3f002122 <half_to_float_array+0x18>
    3f002136:	60e2                	ld	ra,24(sp)
    3f002138:	6442                	ld	s0,16(sp)
    3f00213a:	64a2                	ld	s1,8(sp)
    3f00213c:	6902                	ld	s2,0(sp)
    3f00213e:	6105                	addi	sp,sp,32
    3f002140:	8082                	ret
    3f002142:	8082                	ret

000000003f002144 <half_add>:
    3f002144:	7179                	addi	sp,sp,-48
    3f002146:	f406                	sd	ra,40(sp)
    3f002148:	ac22                	fsd	fs0,24(sp)
    3f00214a:	e42e                	sd	a1,8(sp)
    3f00214c:	ec3ff0ef          	jal	3f00200e <half_to_float>
    3f002150:	6522                	ld	a0,8(sp)
    3f002152:	20a50453          	fmv.s	fs0,fa0
    3f002156:	eb9ff0ef          	jal	3f00200e <half_to_float>
    3f00215a:	00a47553          	fadd.s	fa0,fs0,fa0
    3f00215e:	70a2                	ld	ra,40(sp)
    3f002160:	2462                	fld	fs0,24(sp)
    3f002162:	6145                	addi	sp,sp,48
    3f002164:	bf19                	j	3f00207a <float_to_half>

000000003f002166 <half_sub>:
    3f002166:	7179                	addi	sp,sp,-48
    3f002168:	f406                	sd	ra,40(sp)
    3f00216a:	ac22                	fsd	fs0,24(sp)
    3f00216c:	e42e                	sd	a1,8(sp)
    3f00216e:	ea1ff0ef          	jal	3f00200e <half_to_float>
    3f002172:	6522                	ld	a0,8(sp)
    3f002174:	20a50453          	fmv.s	fs0,fa0
    3f002178:	e97ff0ef          	jal	3f00200e <half_to_float>
    3f00217c:	08a47553          	fsub.s	fa0,fs0,fa0
    3f002180:	70a2                	ld	ra,40(sp)
    3f002182:	2462                	fld	fs0,24(sp)
    3f002184:	6145                	addi	sp,sp,48
    3f002186:	bdd5                	j	3f00207a <float_to_half>

000000003f002188 <half_mul>:
    3f002188:	7179                	addi	sp,sp,-48
    3f00218a:	f406                	sd	ra,40(sp)
    3f00218c:	ac22                	fsd	fs0,24(sp)
    3f00218e:	e42e                	sd	a1,8(sp)
    3f002190:	e7fff0ef          	jal	3f00200e <half_to_float>
    3f002194:	6522                	ld	a0,8(sp)
    3f002196:	20a50453          	fmv.s	fs0,fa0
    3f00219a:	e75ff0ef          	jal	3f00200e <half_to_float>
    3f00219e:	10a47553          	fmul.s	fa0,fs0,fa0
    3f0021a2:	70a2                	ld	ra,40(sp)
    3f0021a4:	2462                	fld	fs0,24(sp)
    3f0021a6:	6145                	addi	sp,sp,48
    3f0021a8:	bdc9                	j	3f00207a <float_to_half>

000000003f0021aa <half_div>:
    3f0021aa:	7179                	addi	sp,sp,-48
    3f0021ac:	f406                	sd	ra,40(sp)
    3f0021ae:	ac22                	fsd	fs0,24(sp)
    3f0021b0:	e42e                	sd	a1,8(sp)
    3f0021b2:	e5dff0ef          	jal	3f00200e <half_to_float>
    3f0021b6:	6522                	ld	a0,8(sp)
    3f0021b8:	20a50453          	fmv.s	fs0,fa0
    3f0021bc:	e53ff0ef          	jal	3f00200e <half_to_float>
    3f0021c0:	18a47553          	fdiv.s	fa0,fs0,fa0
    3f0021c4:	70a2                	ld	ra,40(sp)
    3f0021c6:	2462                	fld	fs0,24(sp)
    3f0021c8:	6145                	addi	sp,sp,48
    3f0021ca:	bd45                	j	3f00207a <float_to_half>

000000003f0021cc <half_min>:
    3f0021cc:	7179                	addi	sp,sp,-48
    3f0021ce:	f406                	sd	ra,40(sp)
    3f0021d0:	ac22                	fsd	fs0,24(sp)
    3f0021d2:	e42e                	sd	a1,8(sp)
    3f0021d4:	e3bff0ef          	jal	3f00200e <half_to_float>
    3f0021d8:	6522                	ld	a0,8(sp)
    3f0021da:	20a50453          	fmv.s	fs0,fa0
    3f0021de:	e31ff0ef          	jal	3f00200e <half_to_float>
    3f0021e2:	70a2                	ld	ra,40(sp)
    3f0021e4:	28a40553          	fmin.s	fa0,fs0,fa0
    3f0021e8:	2462                	fld	fs0,24(sp)
    3f0021ea:	6145                	addi	sp,sp,48
    3f0021ec:	b579                	j	3f00207a <float_to_half>

000000003f0021ee <half_max>:
    3f0021ee:	7179                	addi	sp,sp,-48
    3f0021f0:	f406                	sd	ra,40(sp)
    3f0021f2:	ac22                	fsd	fs0,24(sp)
    3f0021f4:	e42e                	sd	a1,8(sp)
    3f0021f6:	e19ff0ef          	jal	3f00200e <half_to_float>
    3f0021fa:	6522                	ld	a0,8(sp)
    3f0021fc:	20a50453          	fmv.s	fs0,fa0
    3f002200:	e0fff0ef          	jal	3f00200e <half_to_float>
    3f002204:	70a2                	ld	ra,40(sp)
    3f002206:	28a41553          	fmax.s	fa0,fs0,fa0
    3f00220a:	2462                	fld	fs0,24(sp)
    3f00220c:	6145                	addi	sp,sp,48
    3f00220e:	b5b5                	j	3f00207a <float_to_half>

000000003f002210 <open>:
    3f002210:	3e0007b7          	lui	a5,0x3e000
    3f002214:	00878713          	addi	a4,a5,8 # 3e000008 <buflen.1+0x3dffffc8>
    3f002218:	00073023          	sd	zero,0(a4) # 7f800000 <__global_pointer$+0x407fca30>
    3f00221c:	1582                	slli	a1,a1,0x20
    3f00221e:	ef88                	sd	a0,24(a5)
    3f002220:	01878713          	addi	a4,a5,24
    3f002224:	9181                	srli	a1,a1,0x20
    3f002226:	f38c                	sd	a1,32(a5)
    3f002228:	3e000737          	lui	a4,0x3e000
    3f00222c:	4685                	li	a3,1
    3f00222e:	e314                	sd	a3,0(a4)
    3f002230:	6b08                	ld	a0,16(a4)
    3f002232:	2501                	sext.w	a0,a0
    3f002234:	8082                	ret

000000003f002236 <close>:
    3f002236:	3e0007b7          	lui	a5,0x3e000
    3f00223a:	00878713          	addi	a4,a5,8 # 3e000008 <buflen.1+0x3dffffc8>
    3f00223e:	4685                	li	a3,1
    3f002240:	e314                	sd	a3,0(a4)
    3f002242:	ef88                	sd	a0,24(a5)
    3f002244:	3e000737          	lui	a4,0x3e000
    3f002248:	e314                	sd	a3,0(a4)
    3f00224a:	6b08                	ld	a0,16(a4)
    3f00224c:	2501                	sext.w	a0,a0
    3f00224e:	8082                	ret

000000003f002250 <lseek>:
    3f002250:	3e0007b7          	lui	a5,0x3e000
    3f002254:	00878713          	addi	a4,a5,8 # 3e000008 <buflen.1+0x3dffffc8>
    3f002258:	4689                	li	a3,2
    3f00225a:	e314                	sd	a3,0(a4)
    3f00225c:	01878713          	addi	a4,a5,24
    3f002260:	e308                	sd	a0,0(a4)
    3f002262:	f38c                	sd	a1,32(a5)
    3f002264:	02078713          	addi	a4,a5,32
    3f002268:	f790                	sd	a2,40(a5)
    3f00226a:	3e000737          	lui	a4,0x3e000
    3f00226e:	4685                	li	a3,1
    3f002270:	e314                	sd	a3,0(a4)
    3f002272:	6b08                	ld	a0,16(a4)
    3f002274:	8082                	ret

000000003f002276 <read>:
    3f002276:	3e0007b7          	lui	a5,0x3e000
    3f00227a:	00878713          	addi	a4,a5,8 # 3e000008 <buflen.1+0x3dffffc8>
    3f00227e:	468d                	li	a3,3
    3f002280:	e314                	sd	a3,0(a4)
    3f002282:	01878713          	addi	a4,a5,24
    3f002286:	e308                	sd	a0,0(a4)
    3f002288:	f38c                	sd	a1,32(a5)
    3f00228a:	02078713          	addi	a4,a5,32
    3f00228e:	f790                	sd	a2,40(a5)
    3f002290:	3e000737          	lui	a4,0x3e000
    3f002294:	4685                	li	a3,1
    3f002296:	e314                	sd	a3,0(a4)
    3f002298:	6b08                	ld	a0,16(a4)
    3f00229a:	8082                	ret

000000003f00229c <write>:
    3f00229c:	3e0007b7          	lui	a5,0x3e000
    3f0022a0:	00878713          	addi	a4,a5,8 # 3e000008 <buflen.1+0x3dffffc8>
    3f0022a4:	4691                	li	a3,4
    3f0022a6:	e314                	sd	a3,0(a4)
    3f0022a8:	01878713          	addi	a4,a5,24
    3f0022ac:	e308                	sd	a0,0(a4)
    3f0022ae:	f38c                	sd	a1,32(a5)
    3f0022b0:	02078713          	addi	a4,a5,32
    3f0022b4:	f790                	sd	a2,40(a5)
    3f0022b6:	3e000737          	lui	a4,0x3e000
    3f0022ba:	4685                	li	a3,1
    3f0022bc:	e314                	sd	a3,0(a4)
    3f0022be:	6b08                	ld	a0,16(a4)
    3f0022c0:	8082                	ret

000000003f0022c2 <sprintf_punch.0>:
    3f0022c2:	619c                	ld	a5,0(a1)
    3f0022c4:	00a78023          	sb	a0,0(a5)
    3f0022c8:	619c                	ld	a5,0(a1)
    3f0022ca:	0785                	addi	a5,a5,1
    3f0022cc:	e19c                	sd	a5,0(a1)
    3f0022ce:	8082                	ret

000000003f0022d0 <syscall.constprop.0.isra.0>:
    3f0022d0:	7119                	addi	sp,sp,-128
    3f0022d2:	04f10613          	addi	a2,sp,79
    3f0022d6:	fc067613          	andi	a2,a2,-64
    3f0022da:	04000793          	li	a5,64
    3f0022de:	e21c                	sd	a5,0(a2)
    3f0022e0:	4785                	li	a5,1
    3f0022e2:	e61c                	sd	a5,8(a2)
    3f0022e4:	ea08                	sd	a0,16(a2)
    3f0022e6:	ee0c                	sd	a1,24(a2)
    3f0022e8:	0330000f          	fence	rw,rw
    3f0022ec:	a7018713          	addi	a4,gp,-1424 # 3f003040 <syscall_lock>
    3f0022f0:	c63e                	sw	a5,12(sp)
    3f0022f2:	47b2                	lw	a5,12(sp)
    3f0022f4:	0cf727af          	amoswap.w.aq	a5,a5,(a4)
    3f0022f8:	2781                	sext.w	a5,a5
    3f0022fa:	ffe5                	bnez	a5,3f0022f2 <syscall.constprop.0.isra.0+0x22>
    3f0022fc:	fffff797          	auipc	a5,0xfffff
    3f002300:	d0c7b223          	sd	a2,-764(a5) # 3f001000 <tohost>
    3f002304:	fffff697          	auipc	a3,0xfffff
    3f002308:	d3c68693          	addi	a3,a3,-708 # 3f001040 <fromhost>
    3f00230c:	629c                	ld	a5,0(a3)
    3f00230e:	dffd                	beqz	a5,3f00230c <syscall.constprop.0.isra.0+0x3c>
    3f002310:	fffff797          	auipc	a5,0xfffff
    3f002314:	d207b823          	sd	zero,-720(a5) # 3f001040 <fromhost>
    3f002318:	0330000f          	fence	rw,rw
    3f00231c:	0310000f          	fence	rw,w
    3f002320:	00072023          	sw	zero,0(a4) # 3e000000 <buflen.1+0x3dffffc0>
    3f002324:	621c                	ld	a5,0(a2)
    3f002326:	6109                	addi	sp,sp,128
    3f002328:	8082                	ret

000000003f00232a <putchar>:
    3f00232a:	04022583          	lw	a1,64(tp) # 40 <buflen.1>
    3f00232e:	00020793          	mv	a5,tp
    3f002332:	97ae                	add	a5,a5,a1
    3f002334:	2585                	addiw	a1,a1,1
    3f002336:	00a78023          	sb	a0,0(a5)
    3f00233a:	04b22023          	sw	a1,64(tp) # 40 <buflen.1>
    3f00233e:	03f00793          	li	a5,63
    3f002342:	00b7e663          	bltu	a5,a1,3f00234e <putchar+0x24>
    3f002346:	1559                	addi	a0,a0,-10
    3f002348:	c119                	beqz	a0,3f00234e <putchar+0x24>
    3f00234a:	4501                	li	a0,0
    3f00234c:	8082                	ret
    3f00234e:	1141                	addi	sp,sp,-16
    3f002350:	00020513          	mv	a0,tp
    3f002354:	e406                	sd	ra,8(sp)
    3f002356:	f7bff0ef          	jal	3f0022d0 <syscall.constprop.0.isra.0>
    3f00235a:	60a2                	ld	ra,8(sp)
    3f00235c:	04022023          	sw	zero,64(tp) # 40 <buflen.1>
    3f002360:	4501                	li	a0,0
    3f002362:	0141                	addi	sp,sp,16
    3f002364:	8082                	ret

000000003f002366 <vprintfmt>:
    3f002366:	7171                	addi	sp,sp,-176
    3f002368:	f122                	sd	s0,160(sp)
    3f00236a:	e94a                	sd	s2,144(sp)
    3f00236c:	e54e                	sd	s3,136(sp)
    3f00236e:	e152                	sd	s4,128(sp)
    3f002370:	fcd6                	sd	s5,120(sp)
    3f002372:	f8da                	sd	s6,112(sp)
    3f002374:	f4de                	sd	s7,104(sp)
    3f002376:	f506                	sd	ra,168(sp)
    3f002378:	ed26                	sd	s1,152(sp)
    3f00237a:	f0e2                	sd	s8,96(sp)
    3f00237c:	ece6                	sd	s9,88(sp)
    3f00237e:	892a                	mv	s2,a0
    3f002380:	8432                	mv	s0,a2
    3f002382:	8bb6                	mv	s7,a3
    3f002384:	89ae                	mv	s3,a1
    3f002386:	02500a13          	li	s4,37
    3f00238a:	05500b13          	li	s6,85
    3f00238e:	91818a93          	addi	s5,gp,-1768 # 3f002ee8 <abort+0x126>
    3f002392:	a029                	j	3f00239c <vprintfmt+0x36>
    3f002394:	cd1d                	beqz	a0,3f0023d2 <vprintfmt+0x6c>
    3f002396:	85ce                	mv	a1,s3
    3f002398:	0405                	addi	s0,s0,1
    3f00239a:	9902                	jalr	s2
    3f00239c:	00044503          	lbu	a0,0(s0)
    3f0023a0:	ff451ae3          	bne	a0,s4,3f002394 <vprintfmt+0x2e>
    3f0023a4:	00144683          	lbu	a3,1(s0)
    3f0023a8:	00140c93          	addi	s9,s0,1
    3f0023ac:	54fd                	li	s1,-1
    3f0023ae:	8766                	mv	a4,s9
    3f0023b0:	8c26                	mv	s8,s1
    3f0023b2:	02000513          	li	a0,32
    3f0023b6:	4581                	li	a1,0
    3f0023b8:	fdd6879b          	addiw	a5,a3,-35
    3f0023bc:	0ff7f793          	zext.b	a5,a5
    3f0023c0:	00170413          	addi	s0,a4,1
    3f0023c4:	02fb6863          	bltu	s6,a5,3f0023f4 <vprintfmt+0x8e>
    3f0023c8:	078a                	slli	a5,a5,0x2
    3f0023ca:	97d6                	add	a5,a5,s5
    3f0023cc:	439c                	lw	a5,0(a5)
    3f0023ce:	97d6                	add	a5,a5,s5
    3f0023d0:	8782                	jr	a5
    3f0023d2:	70aa                	ld	ra,168(sp)
    3f0023d4:	740a                	ld	s0,160(sp)
    3f0023d6:	64ea                	ld	s1,152(sp)
    3f0023d8:	694a                	ld	s2,144(sp)
    3f0023da:	69aa                	ld	s3,136(sp)
    3f0023dc:	6a0a                	ld	s4,128(sp)
    3f0023de:	7ae6                	ld	s5,120(sp)
    3f0023e0:	7b46                	ld	s6,112(sp)
    3f0023e2:	7ba6                	ld	s7,104(sp)
    3f0023e4:	7c06                	ld	s8,96(sp)
    3f0023e6:	6ce6                	ld	s9,88(sp)
    3f0023e8:	614d                	addi	sp,sp,176
    3f0023ea:	8082                	ret
    3f0023ec:	85ce                	mv	a1,s3
    3f0023ee:	02500513          	li	a0,37
    3f0023f2:	9902                	jalr	s2
    3f0023f4:	85ce                	mv	a1,s3
    3f0023f6:	02500513          	li	a0,37
    3f0023fa:	9902                	jalr	s2
    3f0023fc:	8466                	mv	s0,s9
    3f0023fe:	bf79                	j	3f00239c <vprintfmt+0x36>
    3f002400:	8536                	mv	a0,a3
    3f002402:	00174683          	lbu	a3,1(a4)
    3f002406:	8722                	mv	a4,s0
    3f002408:	bf45                	j	3f0023b8 <vprintfmt+0x52>
    3f00240a:	fd06849b          	addiw	s1,a3,-48
    3f00240e:	00174683          	lbu	a3,1(a4)
    3f002412:	4825                	li	a6,9
    3f002414:	fd06879b          	addiw	a5,a3,-48
    3f002418:	42f86163          	bltu	a6,a5,3f00283a <vprintfmt+0x4d4>
    3f00241c:	0006861b          	sext.w	a2,a3
    3f002420:	8722                	mv	a4,s0
    3f002422:	0024979b          	slliw	a5,s1,0x2
    3f002426:	00174683          	lbu	a3,1(a4)
    3f00242a:	9fa5                	addw	a5,a5,s1
    3f00242c:	fd06061b          	addiw	a2,a2,-48
    3f002430:	0017979b          	slliw	a5,a5,0x1
    3f002434:	00f604bb          	addw	s1,a2,a5
    3f002438:	fd06879b          	addiw	a5,a3,-48
    3f00243c:	0705                	addi	a4,a4,1
    3f00243e:	0006861b          	sext.w	a2,a3
    3f002442:	fef870e3          	bgeu	a6,a5,3f002422 <vprintfmt+0xbc>
    3f002446:	f60c59e3          	bgez	s8,3f0023b8 <vprintfmt+0x52>
    3f00244a:	8c26                	mv	s8,s1
    3f00244c:	54fd                	li	s1,-1
    3f00244e:	b7ad                	j	3f0023b8 <vprintfmt+0x52>
    3f002450:	00174683          	lbu	a3,1(a4)
    3f002454:	8722                	mv	a4,s0
    3f002456:	b78d                	j	3f0023b8 <vprintfmt+0x52>
    3f002458:	00174683          	lbu	a3,1(a4)
    3f00245c:	000ba483          	lw	s1,0(s7)
    3f002460:	8722                	mv	a4,s0
    3f002462:	0ba1                	addi	s7,s7,8
    3f002464:	b7cd                	j	3f002446 <vprintfmt+0xe0>
    3f002466:	46c1                	li	a3,16
    3f002468:	0015f793          	andi	a5,a1,1
    3f00246c:	008b8713          	addi	a4,s7,8
    3f002470:	e7cd                	bnez	a5,3f00251a <vprintfmt+0x1b4>
    3f002472:	0025f793          	andi	a5,a1,2
    3f002476:	e3d5                	bnez	a5,3f00251a <vprintfmt+0x1b4>
    3f002478:	000be783          	lwu	a5,0(s7)
    3f00247c:	8bba                	mv	s7,a4
    3f00247e:	03f10c93          	addi	s9,sp,63
    3f002482:	02010fa3          	sb	zero,63(sp)
    3f002486:	84e6                	mv	s1,s9
    3f002488:	4625                	li	a2,9
    3f00248a:	a011                	j	3f00248e <vprintfmt+0x128>
    3f00248c:	87ba                	mv	a5,a4
    3f00248e:	02d7f733          	remu	a4,a5,a3
    3f002492:	05770513          	addi	a0,a4,87
    3f002496:	00e66463          	bltu	a2,a4,3f00249e <vprintfmt+0x138>
    3f00249a:	03070513          	addi	a0,a4,48
    3f00249e:	fea48fa3          	sb	a0,-1(s1)
    3f0024a2:	14fd                	addi	s1,s1,-1
    3f0024a4:	02d7d733          	divu	a4,a5,a3
    3f0024a8:	fed7f2e3          	bgeu	a5,a3,3f00248c <vprintfmt+0x126>
    3f0024ac:	409c883b          	subw	a6,s9,s1
    3f0024b0:	03885663          	bge	a6,s8,3f0024dc <vprintfmt+0x176>
    3f0024b4:	410c083b          	subw	a6,s8,a6
    3f0024b8:	410486b3          	sub	a3,s1,a6
    3f0024bc:	87a6                	mv	a5,s1
    3f0024be:	03000713          	li	a4,48
    3f0024c2:	17fd                	addi	a5,a5,-1
    3f0024c4:	00e78023          	sb	a4,0(a5)
    3f0024c8:	fef69de3          	bne	a3,a5,3f0024c2 <vprintfmt+0x15c>
    3f0024cc:	387d                	addiw	a6,a6,-1
    3f0024ce:	02081793          	slli	a5,a6,0x20
    3f0024d2:	9381                	srli	a5,a5,0x20
    3f0024d4:	14fd                	addi	s1,s1,-1
    3f0024d6:	03000513          	li	a0,48
    3f0024da:	8c9d                	sub	s1,s1,a5
    3f0024dc:	85ce                	mv	a1,s3
    3f0024de:	0485                	addi	s1,s1,1
    3f0024e0:	9902                	jalr	s2
    3f0024e2:	0004c503          	lbu	a0,0(s1)
    3f0024e6:	ea050be3          	beqz	a0,3f00239c <vprintfmt+0x36>
    3f0024ea:	85ce                	mv	a1,s3
    3f0024ec:	0485                	addi	s1,s1,1
    3f0024ee:	9902                	jalr	s2
    3f0024f0:	0004c503          	lbu	a0,0(s1)
    3f0024f4:	f565                	bnez	a0,3f0024dc <vprintfmt+0x176>
    3f0024f6:	b55d                	j	3f00239c <vprintfmt+0x36>
    3f0024f8:	000ba503          	lw	a0,0(s7)
    3f0024fc:	85ce                	mv	a1,s3
    3f0024fe:	0ba1                	addi	s7,s7,8
    3f002500:	9902                	jalr	s2
    3f002502:	bd69                	j	3f00239c <vprintfmt+0x36>
    3f002504:	85ce                	mv	a1,s3
    3f002506:	03000513          	li	a0,48
    3f00250a:	9902                	jalr	s2
    3f00250c:	85ce                	mv	a1,s3
    3f00250e:	07800513          	li	a0,120
    3f002512:	9902                	jalr	s2
    3f002514:	008b8713          	addi	a4,s7,8
    3f002518:	46c1                	li	a3,16
    3f00251a:	000bb783          	ld	a5,0(s7)
    3f00251e:	8bba                	mv	s7,a4
    3f002520:	bfb9                	j	3f00247e <vprintfmt+0x118>
    3f002522:	0005079b          	sext.w	a5,a0
    3f002526:	000bbc83          	ld	s9,0(s7)
    3f00252a:	e8ea                	sd	s10,80(sp)
    3f00252c:	8d3e                	mv	s10,a5
    3f00252e:	fd378793          	addi	a5,a5,-45
    3f002532:	00f037b3          	snez	a5,a5
    3f002536:	01802733          	sgtz	a4,s8
    3f00253a:	8f7d                	and	a4,a4,a5
    3f00253c:	0ba1                	addi	s7,s7,8
    3f00253e:	280c8b63          	beqz	s9,3f0027d4 <vprintfmt+0x46e>
    3f002542:	2a071163          	bnez	a4,3f0027e4 <vprintfmt+0x47e>
    3f002546:	000cc503          	lbu	a0,0(s9)
    3f00254a:	cd01                	beqz	a0,3f002562 <vprintfmt+0x1fc>
    3f00254c:	0004c463          	bltz	s1,3f002554 <vprintfmt+0x1ee>
    3f002550:	c889                	beqz	s1,3f002562 <vprintfmt+0x1fc>
    3f002552:	34fd                	addiw	s1,s1,-1
    3f002554:	85ce                	mv	a1,s3
    3f002556:	9902                	jalr	s2
    3f002558:	001cc503          	lbu	a0,1(s9)
    3f00255c:	0c85                	addi	s9,s9,1
    3f00255e:	3c7d                	addiw	s8,s8,-1
    3f002560:	f575                	bnez	a0,3f00254c <vprintfmt+0x1e6>
    3f002562:	01805963          	blez	s8,3f002574 <vprintfmt+0x20e>
    3f002566:	85ce                	mv	a1,s3
    3f002568:	02000513          	li	a0,32
    3f00256c:	3c7d                	addiw	s8,s8,-1
    3f00256e:	9902                	jalr	s2
    3f002570:	fe0c1be3          	bnez	s8,3f002566 <vprintfmt+0x200>
    3f002574:	6d46                	ld	s10,80(sp)
    3f002576:	b51d                	j	3f00239c <vprintfmt+0x36>
    3f002578:	0015f793          	andi	a5,a1,1
    3f00257c:	008b8c93          	addi	s9,s7,8
    3f002580:	e781                	bnez	a5,3f002588 <vprintfmt+0x222>
    3f002582:	8989                	andi	a1,a1,2
    3f002584:	22058163          	beqz	a1,3f0027a6 <vprintfmt+0x440>
    3f002588:	000bb483          	ld	s1,0(s7)
    3f00258c:	2204cb63          	bltz	s1,3f0027c2 <vprintfmt+0x45c>
    3f002590:	87a6                	mv	a5,s1
    3f002592:	8be6                	mv	s7,s9
    3f002594:	46a9                	li	a3,10
    3f002596:	b5e5                	j	3f00247e <vprintfmt+0x118>
    3f002598:	000ba703          	lw	a4,0(s7)
    3f00259c:	67a1                	lui	a5,0x8
    3f00259e:	c0078793          	addi	a5,a5,-1024 # 7c00 <buflen.1+0x7bc0>
    3f0025a2:	03071513          	slli	a0,a4,0x30
    3f0025a6:	00f776b3          	and	a3,a4,a5
    3f0025aa:	0ba1                	addi	s7,s7,8
    3f0025ac:	9141                	srli	a0,a0,0x30
    3f0025ae:	04f69a63          	bne	a3,a5,3f002602 <vprintfmt+0x29c>
    3f0025b2:	3ff77793          	andi	a5,a4,1023
    3f0025b6:	1c079b63          	bnez	a5,3f00278c <vprintfmt+0x426>
    3f0025ba:	03071793          	slli	a5,a4,0x30
    3f0025be:	0007d663          	bgez	a5,3f0025ca <vprintfmt+0x264>
    3f0025c2:	85ce                	mv	a1,s3
    3f0025c4:	02d00513          	li	a0,45
    3f0025c8:	9902                	jalr	s2
    3f0025ca:	85ce                	mv	a1,s3
    3f0025cc:	04900513          	li	a0,73
    3f0025d0:	9902                	jalr	s2
    3f0025d2:	85ce                	mv	a1,s3
    3f0025d4:	06e00513          	li	a0,110
    3f0025d8:	9902                	jalr	s2
    3f0025da:	85ce                	mv	a1,s3
    3f0025dc:	06600513          	li	a0,102
    3f0025e0:	9902                	jalr	s2
    3f0025e2:	bb6d                	j	3f00239c <vprintfmt+0x36>
    3f0025e4:	00174683          	lbu	a3,1(a4)
    3f0025e8:	2585                	addiw	a1,a1,1
    3f0025ea:	8722                	mv	a4,s0
    3f0025ec:	b3f1                	j	3f0023b8 <vprintfmt+0x52>
    3f0025ee:	87e2                	mv	a5,s8
    3f0025f0:	000c5363          	bgez	s8,3f0025f6 <vprintfmt+0x290>
    3f0025f4:	4781                	li	a5,0
    3f0025f6:	00174683          	lbu	a3,1(a4)
    3f0025fa:	00078c1b          	sext.w	s8,a5
    3f0025fe:	8722                	mv	a4,s0
    3f002600:	bb65                	j	3f0023b8 <vprintfmt+0x52>
    3f002602:	a4a2                	fsd	fs0,72(sp)
    3f002604:	a0bff0ef          	jal	3f00200e <half_to_float>
    3f002608:	f00007d3          	fmv.w.x	fa5,zero
    3f00260c:	20a50453          	fmv.s	fs0,fa0
    3f002610:	a0a787d3          	fle.s	a5,fa5,fa0
    3f002614:	18078e63          	beqz	a5,3f0027b0 <vprintfmt+0x44a>
    3f002618:	c01417d3          	fcvt.wu.s	a5,fs0,rtz
    3f00261c:	ccccd737          	lui	a4,0xccccd
    3f002620:	ccd70713          	addi	a4,a4,-819 # ffffffffcccccccd <__global_pointer$+0xffffffff8dcc96fd>
    3f002624:	1782                	slli	a5,a5,0x20
    3f002626:	02071593          	slli	a1,a4,0x20
    3f00262a:	03f10c93          	addi	s9,sp,63
    3f00262e:	9381                	srli	a5,a5,0x20
    3f002630:	95ba                	add	a1,a1,a4
    3f002632:	02010fa3          	sb	zero,63(sp)
    3f002636:	84e6                	mv	s1,s9
    3f002638:	48a5                	li	a7,9
    3f00263a:	02b7b733          	mulhu	a4,a5,a1
    3f00263e:	863e                	mv	a2,a5
    3f002640:	14fd                	addi	s1,s1,-1
    3f002642:	830d                	srli	a4,a4,0x3
    3f002644:	00271693          	slli	a3,a4,0x2
    3f002648:	96ba                	add	a3,a3,a4
    3f00264a:	0686                	slli	a3,a3,0x1
    3f00264c:	8f95                	sub	a5,a5,a3
    3f00264e:	0307879b          	addiw	a5,a5,48
    3f002652:	0ff7f513          	zext.b	a0,a5
    3f002656:	00a48023          	sb	a0,0(s1)
    3f00265a:	87ba                	mv	a5,a4
    3f00265c:	fcc8efe3          	bltu	a7,a2,3f00263a <vprintfmt+0x2d4>
    3f002660:	409c87bb          	subw	a5,s9,s1
    3f002664:	577d                	li	a4,-1
    3f002666:	02e7d663          	bge	a5,a4,3f002692 <vprintfmt+0x32c>
    3f00266a:	fff7c713          	not	a4,a5
    3f00266e:	40e48633          	sub	a2,s1,a4
    3f002672:	87a6                	mv	a5,s1
    3f002674:	03000693          	li	a3,48
    3f002678:	17fd                	addi	a5,a5,-1
    3f00267a:	00d78023          	sb	a3,0(a5)
    3f00267e:	fec79de3          	bne	a5,a2,3f002678 <vprintfmt+0x312>
    3f002682:	fff7079b          	addiw	a5,a4,-1
    3f002686:	1782                	slli	a5,a5,0x20
    3f002688:	9381                	srli	a5,a5,0x20
    3f00268a:	14fd                	addi	s1,s1,-1
    3f00268c:	03000513          	li	a0,48
    3f002690:	8c9d                	sub	s1,s1,a5
    3f002692:	85ce                	mv	a1,s3
    3f002694:	0485                	addi	s1,s1,1
    3f002696:	9902                	jalr	s2
    3f002698:	0004c503          	lbu	a0,0(s1)
    3f00269c:	f97d                	bnez	a0,3f002692 <vprintfmt+0x32c>
    3f00269e:	85ce                	mv	a1,s3
    3f0026a0:	02e00513          	li	a0,46
    3f0026a4:	9902                	jalr	s2
    3f0026a6:	208427d3          	fabs.s	fa5,fs0
    3f0026aa:	00000797          	auipc	a5,0x0
    3f0026ae:	7267a687          	flw	fa3,1830(a5) # 3f002dd0 <abort+0xe>
    3f0026b2:	20840753          	fmv.s	fa4,fs0
    3f0026b6:	a0d797d3          	flt.s	a5,fa5,fa3
    3f0026ba:	c799                	beqz	a5,3f0026c8 <vprintfmt+0x362>
    3f0026bc:	c00417d3          	fcvt.w.s	a5,fs0,rtz
    3f0026c0:	d007f7d3          	fcvt.s.w	fa5,a5
    3f0026c4:	20878753          	fsgnj.s	fa4,fa5,fs0
    3f0026c8:	08e477d3          	fsub.s	fa5,fs0,fa4
    3f0026cc:	00000797          	auipc	a5,0x0
    3f0026d0:	7087a707          	flw	fa4,1800(a5) # 3f002dd4 <abort+0x12>
    3f0026d4:	10e7f7d3          	fmul.s	fa5,fa5,fa4
    3f0026d8:	c0179c53          	fcvt.wu.s	s8,fa5,rtz
    3f0026dc:	1c02                	slli	s8,s8,0x20
    3f0026de:	020c5c13          	srli	s8,s8,0x20
    3f0026e2:	020c0163          	beqz	s8,3f002704 <vprintfmt+0x39e>
    3f0026e6:	47a5                	li	a5,9
    3f0026e8:	1387eb63          	bltu	a5,s8,3f00281e <vprintfmt+0x4b8>
    3f0026ec:	85ce                	mv	a1,s3
    3f0026ee:	03000513          	li	a0,48
    3f0026f2:	9902                	jalr	s2
    3f0026f4:	85ce                	mv	a1,s3
    3f0026f6:	03000513          	li	a0,48
    3f0026fa:	9902                	jalr	s2
    3f0026fc:	85ce                	mv	a1,s3
    3f0026fe:	03000513          	li	a0,48
    3f002702:	9902                	jalr	s2
    3f002704:	85ce                	mv	a1,s3
    3f002706:	03000513          	li	a0,48
    3f00270a:	9902                	jalr	s2
    3f00270c:	ccccd7b7          	lui	a5,0xccccd
    3f002710:	ccd78793          	addi	a5,a5,-819 # ffffffffcccccccd <__global_pointer$+0xffffffff8dcc96fd>
    3f002714:	02079693          	slli	a3,a5,0x20
    3f002718:	96be                	add	a3,a3,a5
    3f00271a:	02010fa3          	sb	zero,63(sp)
    3f00271e:	84e6                	mv	s1,s9
    3f002720:	4625                	li	a2,9
    3f002722:	02dc37b3          	mulhu	a5,s8,a3
    3f002726:	14fd                	addi	s1,s1,-1
    3f002728:	8762                	mv	a4,s8
    3f00272a:	838d                	srli	a5,a5,0x3
    3f00272c:	00279513          	slli	a0,a5,0x2
    3f002730:	953e                	add	a0,a0,a5
    3f002732:	0506                	slli	a0,a0,0x1
    3f002734:	40ac0533          	sub	a0,s8,a0
    3f002738:	0305051b          	addiw	a0,a0,48
    3f00273c:	0ff57513          	zext.b	a0,a0
    3f002740:	00a48023          	sb	a0,0(s1)
    3f002744:	8c3e                	mv	s8,a5
    3f002746:	fce66ee3          	bltu	a2,a4,3f002722 <vprintfmt+0x3bc>
    3f00274a:	409c883b          	subw	a6,s9,s1
    3f00274e:	57fd                	li	a5,-1
    3f002750:	02f85663          	bge	a6,a5,3f00277c <vprintfmt+0x416>
    3f002754:	fff84813          	not	a6,a6
    3f002758:	410486b3          	sub	a3,s1,a6
    3f00275c:	87a6                	mv	a5,s1
    3f00275e:	03000713          	li	a4,48
    3f002762:	17fd                	addi	a5,a5,-1
    3f002764:	00e78023          	sb	a4,0(a5)
    3f002768:	fed79de3          	bne	a5,a3,3f002762 <vprintfmt+0x3fc>
    3f00276c:	387d                	addiw	a6,a6,-1
    3f00276e:	02081793          	slli	a5,a6,0x20
    3f002772:	9381                	srli	a5,a5,0x20
    3f002774:	14fd                	addi	s1,s1,-1
    3f002776:	03000513          	li	a0,48
    3f00277a:	8c9d                	sub	s1,s1,a5
    3f00277c:	85ce                	mv	a1,s3
    3f00277e:	0485                	addi	s1,s1,1
    3f002780:	9902                	jalr	s2
    3f002782:	0004c503          	lbu	a0,0(s1)
    3f002786:	f97d                	bnez	a0,3f00277c <vprintfmt+0x416>
    3f002788:	2426                	fld	fs0,72(sp)
    3f00278a:	b909                	j	3f00239c <vprintfmt+0x36>
    3f00278c:	85ce                	mv	a1,s3
    3f00278e:	04e00513          	li	a0,78
    3f002792:	9902                	jalr	s2
    3f002794:	85ce                	mv	a1,s3
    3f002796:	06100513          	li	a0,97
    3f00279a:	9902                	jalr	s2
    3f00279c:	85ce                	mv	a1,s3
    3f00279e:	04e00513          	li	a0,78
    3f0027a2:	9902                	jalr	s2
    3f0027a4:	bee5                	j	3f00239c <vprintfmt+0x36>
    3f0027a6:	000ba483          	lw	s1,0(s7)
    3f0027aa:	b3cd                	j	3f00258c <vprintfmt+0x226>
    3f0027ac:	46a1                	li	a3,8
    3f0027ae:	b96d                	j	3f002468 <vprintfmt+0x102>
    3f0027b0:	85ce                	mv	a1,s3
    3f0027b2:	02d00513          	li	a0,45
    3f0027b6:	20841453          	fneg.s	fs0,fs0
    3f0027ba:	9902                	jalr	s2
    3f0027bc:	bdb1                	j	3f002618 <vprintfmt+0x2b2>
    3f0027be:	46a9                	li	a3,10
    3f0027c0:	b165                	j	3f002468 <vprintfmt+0x102>
    3f0027c2:	85ce                	mv	a1,s3
    3f0027c4:	02d00513          	li	a0,45
    3f0027c8:	9902                	jalr	s2
    3f0027ca:	409007b3          	neg	a5,s1
    3f0027ce:	8be6                	mv	s7,s9
    3f0027d0:	46a9                	li	a3,10
    3f0027d2:	b175                	j	3f00247e <vprintfmt+0x118>
    3f0027d4:	00000c97          	auipc	s9,0x0
    3f0027d8:	64cc8c93          	addi	s9,s9,1612 # 3f002e20 <abort+0x5e>
    3f0027dc:	02800513          	li	a0,40
    3f0027e0:	d60706e3          	beqz	a4,3f00254c <vprintfmt+0x1e6>
    3f0027e4:	87e6                	mv	a5,s9
    3f0027e6:	009c86b3          	add	a3,s9,s1
    3f0027ea:	e489                	bnez	s1,3f0027f4 <vprintfmt+0x48e>
    3f0027ec:	a829                	j	3f002806 <vprintfmt+0x4a0>
    3f0027ee:	0785                	addi	a5,a5,1
    3f0027f0:	00d78563          	beq	a5,a3,3f0027fa <vprintfmt+0x494>
    3f0027f4:	0007c703          	lbu	a4,0(a5)
    3f0027f8:	fb7d                	bnez	a4,3f0027ee <vprintfmt+0x488>
    3f0027fa:	419787b3          	sub	a5,a5,s9
    3f0027fe:	40fc0c3b          	subw	s8,s8,a5
    3f002802:	01805863          	blez	s8,3f002812 <vprintfmt+0x4ac>
    3f002806:	85ce                	mv	a1,s3
    3f002808:	856a                	mv	a0,s10
    3f00280a:	3c7d                	addiw	s8,s8,-1
    3f00280c:	9902                	jalr	s2
    3f00280e:	fe0c1ce3          	bnez	s8,3f002806 <vprintfmt+0x4a0>
    3f002812:	000cc503          	lbu	a0,0(s9)
    3f002816:	d2051be3          	bnez	a0,3f00254c <vprintfmt+0x1e6>
    3f00281a:	6d46                	ld	s10,80(sp)
    3f00281c:	b641                	j	3f00239c <vprintfmt+0x36>
    3f00281e:	06300793          	li	a5,99
    3f002822:	ed87f9e3          	bgeu	a5,s8,3f0026f4 <vprintfmt+0x38e>
    3f002826:	3e700793          	li	a5,999
    3f00282a:	ed87f9e3          	bgeu	a5,s8,3f0026fc <vprintfmt+0x396>
    3f00282e:	6789                	lui	a5,0x2
    3f002830:	70f78793          	addi	a5,a5,1807 # 270f <buflen.1+0x26cf>
    3f002834:	ed87f8e3          	bgeu	a5,s8,3f002704 <vprintfmt+0x39e>
    3f002838:	bdd1                	j	3f00270c <vprintfmt+0x3a6>
    3f00283a:	8722                	mv	a4,s0
    3f00283c:	b129                	j	3f002446 <vprintfmt+0xe0>

000000003f00283e <setStats>:
    3f00283e:	b0002773          	csrr	a4,mcycle
    3f002842:	a8018793          	addi	a5,gp,-1408 # 3f003050 <counters>
    3f002846:	c511                	beqz	a0,3f002852 <setStats+0x14>
    3f002848:	e398                	sd	a4,0(a5)
    3f00284a:	b0202773          	csrr	a4,minstret
    3f00284e:	e798                	sd	a4,8(a5)
    3f002850:	8082                	ret
    3f002852:	6394                	ld	a3,0(a5)
    3f002854:	00000617          	auipc	a2,0x0
    3f002858:	5d460613          	addi	a2,a2,1492 # 3f002e28 <abort+0x66>
    3f00285c:	eb90                	sd	a2,16(a5)
    3f00285e:	8f15                	sub	a4,a4,a3
    3f002860:	e398                	sd	a4,0(a5)
    3f002862:	b0202773          	csrr	a4,minstret
    3f002866:	6794                	ld	a3,8(a5)
    3f002868:	00000617          	auipc	a2,0x0
    3f00286c:	5c860613          	addi	a2,a2,1480 # 3f002e30 <abort+0x6e>
    3f002870:	ef90                	sd	a2,24(a5)
    3f002872:	8f15                	sub	a4,a4,a3
    3f002874:	e798                	sd	a4,8(a5)
    3f002876:	8082                	ret

000000003f002878 <tohost_exit>:
    3f002878:	00151793          	slli	a5,a0,0x1
    3f00287c:	0017e793          	ori	a5,a5,1
    3f002880:	ffffe717          	auipc	a4,0xffffe
    3f002884:	78f73023          	sd	a5,1920(a4) # 3f001000 <tohost>
    3f002888:	a001                	j	3f002888 <tohost_exit+0x10>

000000003f00288a <handle_trap>:
    3f00288a:	6785                	lui	a5,0x1
    3f00288c:	a7378793          	addi	a5,a5,-1421 # a73 <buflen.1+0xa33>
    3f002890:	ffffe717          	auipc	a4,0xffffe
    3f002894:	76f73823          	sd	a5,1904(a4) # 3f001000 <tohost>
    3f002898:	a001                	j	3f002898 <handle_trap+0xe>

000000003f00289a <exit>:
    3f00289a:	1141                	addi	sp,sp,-16
    3f00289c:	e406                	sd	ra,8(sp)
    3f00289e:	fdbff0ef          	jal	3f002878 <tohost_exit>

000000003f0028a2 <printstr>:
    3f0028a2:	00054783          	lbu	a5,0(a0)
    3f0028a6:	cb81                	beqz	a5,3f0028b6 <printstr+0x14>
    3f0028a8:	85aa                	mv	a1,a0
    3f0028aa:	0015c783          	lbu	a5,1(a1)
    3f0028ae:	0585                	addi	a1,a1,1
    3f0028b0:	ffed                	bnez	a5,3f0028aa <printstr+0x8>
    3f0028b2:	8d89                	sub	a1,a1,a0
    3f0028b4:	bc31                	j	3f0022d0 <syscall.constprop.0.isra.0>
    3f0028b6:	4581                	li	a1,0
    3f0028b8:	bc21                	j	3f0022d0 <syscall.constprop.0.isra.0>

000000003f0028ba <thread_entry>:
    3f0028ba:	e111                	bnez	a0,3f0028be <thread_entry+0x4>
    3f0028bc:	8082                	ret
    3f0028be:	a001                	j	3f0028be <thread_entry+0x4>

000000003f0028c0 <printhex>:
    3f0028c0:	1101                	addi	sp,sp,-32
    3f0028c2:	87aa                	mv	a5,a0
    3f0028c4:	ec06                	sd	ra,24(sp)
    3f0028c6:	000107a3          	sb	zero,15(sp)
    3f0028ca:	00f10513          	addi	a0,sp,15
    3f0028ce:	4625                	li	a2,9
    3f0028d0:	00f7f713          	andi	a4,a5,15
    3f0028d4:	157d                	addi	a0,a0,-1
    3f0028d6:	8391                	srli	a5,a5,0x4
    3f0028d8:	05770693          	addi	a3,a4,87
    3f0028dc:	00e64463          	blt	a2,a4,3f0028e4 <printhex+0x24>
    3f0028e0:	03070693          	addi	a3,a4,48
    3f0028e4:	00d50023          	sb	a3,0(a0)
    3f0028e8:	f7e5                	bnez	a5,3f0028d0 <printhex+0x10>
    3f0028ea:	85aa                	mv	a1,a0
    3f0028ec:	0015c783          	lbu	a5,1(a1)
    3f0028f0:	0585                	addi	a1,a1,1
    3f0028f2:	ffed                	bnez	a5,3f0028ec <printhex+0x2c>
    3f0028f4:	8d89                	sub	a1,a1,a0
    3f0028f6:	9dbff0ef          	jal	3f0022d0 <syscall.constprop.0.isra.0>
    3f0028fa:	60e2                	ld	ra,24(sp)
    3f0028fc:	6105                	addi	sp,sp,32
    3f0028fe:	8082                	ret

000000003f002900 <printf>:
    3f002900:	711d                	addi	sp,sp,-96
    3f002902:	02810313          	addi	t1,sp,40
    3f002906:	f42e                	sd	a1,40(sp)
    3f002908:	f832                	sd	a2,48(sp)
    3f00290a:	fc36                	sd	a3,56(sp)
    3f00290c:	862a                	mv	a2,a0
    3f00290e:	869a                	mv	a3,t1
    3f002910:	00000517          	auipc	a0,0x0
    3f002914:	a1a50513          	addi	a0,a0,-1510 # 3f00232a <putchar>
    3f002918:	4581                	li	a1,0
    3f00291a:	ec06                	sd	ra,24(sp)
    3f00291c:	e0ba                	sd	a4,64(sp)
    3f00291e:	e4be                	sd	a5,72(sp)
    3f002920:	e8c2                	sd	a6,80(sp)
    3f002922:	ecc6                	sd	a7,88(sp)
    3f002924:	e41a                	sd	t1,8(sp)
    3f002926:	a41ff0ef          	jal	3f002366 <vprintfmt>
    3f00292a:	60e2                	ld	ra,24(sp)
    3f00292c:	4501                	li	a0,0
    3f00292e:	6125                	addi	sp,sp,96
    3f002930:	8082                	ret

000000003f002932 <sprintf>:
    3f002932:	711d                	addi	sp,sp,-96
    3f002934:	03010313          	addi	t1,sp,48
    3f002938:	f022                	sd	s0,32(sp)
    3f00293a:	e42a                	sd	a0,8(sp)
    3f00293c:	f832                	sd	a2,48(sp)
    3f00293e:	fc36                	sd	a3,56(sp)
    3f002940:	842a                	mv	s0,a0
    3f002942:	862e                	mv	a2,a1
    3f002944:	00000517          	auipc	a0,0x0
    3f002948:	97e50513          	addi	a0,a0,-1666 # 3f0022c2 <sprintf_punch.0>
    3f00294c:	002c                	addi	a1,sp,8
    3f00294e:	869a                	mv	a3,t1
    3f002950:	f406                	sd	ra,40(sp)
    3f002952:	e4be                	sd	a5,72(sp)
    3f002954:	e0ba                	sd	a4,64(sp)
    3f002956:	e8c2                	sd	a6,80(sp)
    3f002958:	ecc6                	sd	a7,88(sp)
    3f00295a:	ec1a                	sd	t1,24(sp)
    3f00295c:	a0bff0ef          	jal	3f002366 <vprintfmt>
    3f002960:	67a2                	ld	a5,8(sp)
    3f002962:	00078023          	sb	zero,0(a5)
    3f002966:	6522                	ld	a0,8(sp)
    3f002968:	70a2                	ld	ra,40(sp)
    3f00296a:	9d01                	subw	a0,a0,s0
    3f00296c:	7402                	ld	s0,32(sp)
    3f00296e:	6125                	addi	sp,sp,96
    3f002970:	8082                	ret

000000003f002972 <memcpy>:
    3f002972:	00c5e7b3          	or	a5,a1,a2
    3f002976:	8fc9                	or	a5,a5,a0
    3f002978:	8b9d                	andi	a5,a5,7
    3f00297a:	83ae                	mv	t2,a1
    3f00297c:	00c506b3          	add	a3,a0,a2
    3f002980:	cf89                	beqz	a5,3f00299a <memcpy+0x28>
    3f002982:	87aa                	mv	a5,a0
    3f002984:	08d57a63          	bgeu	a0,a3,3f002a18 <memcpy+0xa6>
    3f002988:	0005c703          	lbu	a4,0(a1)
    3f00298c:	0785                	addi	a5,a5,1
    3f00298e:	0585                	addi	a1,a1,1
    3f002990:	fee78fa3          	sb	a4,-1(a5)
    3f002994:	fef69ae3          	bne	a3,a5,3f002988 <memcpy+0x16>
    3f002998:	8082                	ret
    3f00299a:	04050713          	addi	a4,a0,64
    3f00299e:	06d77e63          	bgeu	a4,a3,3f002a1a <memcpy+0xa8>
    3f0029a2:	87ba                	mv	a5,a4
    3f0029a4:	0005b283          	ld	t0,0(a1)
    3f0029a8:	0085bf83          	ld	t6,8(a1)
    3f0029ac:	0105bf03          	ld	t5,16(a1)
    3f0029b0:	0185be83          	ld	t4,24(a1)
    3f0029b4:	0205be03          	ld	t3,32(a1)
    3f0029b8:	0285b303          	ld	t1,40(a1)
    3f0029bc:	0305b883          	ld	a7,48(a1)
    3f0029c0:	0385b803          	ld	a6,56(a1)
    3f0029c4:	04078793          	addi	a5,a5,64
    3f0029c8:	f857b023          	sd	t0,-128(a5)
    3f0029cc:	f9f7b423          	sd	t6,-120(a5)
    3f0029d0:	f9e7b823          	sd	t5,-112(a5)
    3f0029d4:	f9d7bc23          	sd	t4,-104(a5)
    3f0029d8:	fbc7b023          	sd	t3,-96(a5)
    3f0029dc:	fa67b423          	sd	t1,-88(a5)
    3f0029e0:	fb17b823          	sd	a7,-80(a5)
    3f0029e4:	fb07bc23          	sd	a6,-72(a5)
    3f0029e8:	04058593          	addi	a1,a1,64
    3f0029ec:	fad7ece3          	bltu	a5,a3,3f0029a4 <memcpy+0x32>
    3f0029f0:	fbf60613          	addi	a2,a2,-65
    3f0029f4:	fc067613          	andi	a2,a2,-64
    3f0029f8:	04038393          	addi	t2,t2,64
    3f0029fc:	00c707b3          	add	a5,a4,a2
    3f002a00:	00c385b3          	add	a1,t2,a2
    3f002a04:	f8d7fae3          	bgeu	a5,a3,3f002998 <memcpy+0x26>
    3f002a08:	6198                	ld	a4,0(a1)
    3f002a0a:	07a1                	addi	a5,a5,8
    3f002a0c:	05a1                	addi	a1,a1,8
    3f002a0e:	fee7bc23          	sd	a4,-8(a5)
    3f002a12:	fed7ebe3          	bltu	a5,a3,3f002a08 <memcpy+0x96>
    3f002a16:	8082                	ret
    3f002a18:	8082                	ret
    3f002a1a:	87aa                	mv	a5,a0
    3f002a1c:	b7e5                	j	3f002a04 <memcpy+0x92>

000000003f002a1e <memset>:
    3f002a1e:	00c567b3          	or	a5,a0,a2
    3f002a22:	8b9d                	andi	a5,a5,7
    3f002a24:	962a                	add	a2,a2,a0
    3f002a26:	cb91                	beqz	a5,3f002a3a <memset+0x1c>
    3f002a28:	87aa                	mv	a5,a0
    3f002a2a:	02c57c63          	bgeu	a0,a2,3f002a62 <memset+0x44>
    3f002a2e:	0785                	addi	a5,a5,1
    3f002a30:	feb78fa3          	sb	a1,-1(a5)
    3f002a34:	fef61de3          	bne	a2,a5,3f002a2e <memset+0x10>
    3f002a38:	8082                	ret
    3f002a3a:	fec57fe3          	bgeu	a0,a2,3f002a38 <memset+0x1a>
    3f002a3e:	010107b7          	lui	a5,0x1010
    3f002a42:	10178793          	addi	a5,a5,257 # 1010101 <buflen.1+0x10100c1>
    3f002a46:	02079713          	slli	a4,a5,0x20
    3f002a4a:	973e                	add	a4,a4,a5
    3f002a4c:	0ff5f593          	zext.b	a1,a1
    3f002a50:	02e585b3          	mul	a1,a1,a4
    3f002a54:	87aa                	mv	a5,a0
    3f002a56:	07a1                	addi	a5,a5,8
    3f002a58:	feb7bc23          	sd	a1,-8(a5)
    3f002a5c:	fec7ede3          	bltu	a5,a2,3f002a56 <memset+0x38>
    3f002a60:	8082                	ret
    3f002a62:	8082                	ret

000000003f002a64 <_init>:
    3f002a64:	7171                	addi	sp,sp,-176
    3f002a66:	f122                	sd	s0,160(sp)
    3f002a68:	ed26                	sd	s1,152(sp)
    3f002a6a:	aa018413          	addi	s0,gp,-1376 # 3f003070 <_tdata_begin>
    3f002a6e:	aa018493          	addi	s1,gp,-1376 # 3f003070 <_tdata_begin>
    3f002a72:	8c05                	sub	s0,s0,s1
    3f002a74:	8622                	mv	a2,s0
    3f002a76:	e54e                	sd	s3,136(sp)
    3f002a78:	e152                	sd	s4,128(sp)
    3f002a7a:	89aa                	mv	s3,a0
    3f002a7c:	8a2e                	mv	s4,a1
    3f002a7e:	8512                	mv	a0,tp
    3f002a80:	85a6                	mv	a1,s1
    3f002a82:	f506                	sd	ra,168(sp)
    3f002a84:	e94a                	sd	s2,144(sp)
    3f002a86:	fcd6                	sd	s5,120(sp)
    3f002a88:	8a92                	mv	s5,tp
    3f002a8a:	ee9ff0ef          	jal	3f002972 <memcpy>
    3f002a8e:	00000617          	auipc	a2,0x0
    3f002a92:	63660613          	addi	a2,a2,1590 # 3f0030c4 <_tbss_end>
    3f002a96:	8e05                	sub	a2,a2,s1
    3f002a98:	008a8533          	add	a0,s5,s0
    3f002a9c:	4581                	li	a1,0
    3f002a9e:	f81ff0ef          	jal	3f002a1e <memset>
    3f002aa2:	85d2                	mv	a1,s4
    3f002aa4:	854e                	mv	a0,s3
    3f002aa6:	e15ff0ef          	jal	3f0028ba <thread_entry>
    3f002aaa:	3f7ff7b7          	lui	a5,0x3f7ff
    3f002aae:	4388                	lw	a0,0(a5)
    3f002ab0:	03f10913          	addi	s2,sp,63
    3f002ab4:	00878593          	addi	a1,a5,8 # 3f7ff008 <__global_pointer$+0x7fba38>
    3f002ab8:	fc097913          	andi	s2,s2,-64
    3f002abc:	29a000ef          	jal	3f002d56 <main>
    3f002ac0:	a9018493          	addi	s1,gp,-1392 # 3f003060 <counter_names>
    3f002ac4:	8aaa                	mv	s5,a0
    3f002ac6:	89ca                	mv	s3,s2
    3f002ac8:	8a26                	mv	s4,s1
    3f002aca:	a8018413          	addi	s0,gp,-1408 # 3f003050 <counters>
    3f002ace:	6014                	ld	a3,0(s0)
    3f002ad0:	ee89                	bnez	a3,3f002aea <_init+0x86>
    3f002ad2:	0421                	addi	s0,s0,8
    3f002ad4:	04a1                	addi	s1,s1,8
    3f002ad6:	ff441ce3          	bne	s0,s4,3f002ace <_init+0x6a>
    3f002ada:	01390563          	beq	s2,s3,3f002ae4 <_init+0x80>
    3f002ade:	854a                	mv	a0,s2
    3f002ae0:	dc3ff0ef          	jal	3f0028a2 <printstr>
    3f002ae4:	8556                	mv	a0,s5
    3f002ae6:	d93ff0ef          	jal	3f002878 <tohost_exit>
    3f002aea:	6090                	ld	a2,0(s1)
    3f002aec:	854e                	mv	a0,s3
    3f002aee:	00000597          	auipc	a1,0x0
    3f002af2:	38a58593          	addi	a1,a1,906 # 3f002e78 <abort+0xb6>
    3f002af6:	e3dff0ef          	jal	3f002932 <sprintf>
    3f002afa:	99aa                	add	s3,s3,a0
    3f002afc:	bfd9                	j	3f002ad2 <_init+0x6e>

000000003f002afe <strlen>:
    3f002afe:	00054783          	lbu	a5,0(a0)
    3f002b02:	cb89                	beqz	a5,3f002b14 <strlen+0x16>
    3f002b04:	87aa                	mv	a5,a0
    3f002b06:	0017c703          	lbu	a4,1(a5)
    3f002b0a:	0785                	addi	a5,a5,1
    3f002b0c:	ff6d                	bnez	a4,3f002b06 <strlen+0x8>
    3f002b0e:	40a78533          	sub	a0,a5,a0
    3f002b12:	8082                	ret
    3f002b14:	4501                	li	a0,0
    3f002b16:	8082                	ret

000000003f002b18 <strnlen>:
    3f002b18:	00b506b3          	add	a3,a0,a1
    3f002b1c:	87aa                	mv	a5,a0
    3f002b1e:	e589                	bnez	a1,3f002b28 <strnlen+0x10>
    3f002b20:	a811                	j	3f002b34 <strnlen+0x1c>
    3f002b22:	0785                	addi	a5,a5,1
    3f002b24:	00d78563          	beq	a5,a3,3f002b2e <strnlen+0x16>
    3f002b28:	0007c703          	lbu	a4,0(a5)
    3f002b2c:	fb7d                	bnez	a4,3f002b22 <strnlen+0xa>
    3f002b2e:	40a78533          	sub	a0,a5,a0
    3f002b32:	8082                	ret
    3f002b34:	4501                	li	a0,0
    3f002b36:	8082                	ret

000000003f002b38 <strcmp>:
    3f002b38:	00054783          	lbu	a5,0(a0)
    3f002b3c:	0505                	addi	a0,a0,1
    3f002b3e:	0585                	addi	a1,a1,1
    3f002b40:	0007869b          	sext.w	a3,a5
    3f002b44:	fff5c703          	lbu	a4,-1(a1)
    3f002b48:	c399                	beqz	a5,3f002b4e <strcmp+0x16>
    3f002b4a:	fee687e3          	beq	a3,a4,3f002b38 <strcmp>
    3f002b4e:	40e7853b          	subw	a0,a5,a4
    3f002b52:	8082                	ret

000000003f002b54 <strcpy>:
    3f002b54:	87aa                	mv	a5,a0
    3f002b56:	0005c703          	lbu	a4,0(a1)
    3f002b5a:	0585                	addi	a1,a1,1
    3f002b5c:	0785                	addi	a5,a5,1
    3f002b5e:	fee78fa3          	sb	a4,-1(a5)
    3f002b62:	fb75                	bnez	a4,3f002b56 <strcpy+0x2>
    3f002b64:	8082                	ret

000000003f002b66 <atol>:
    3f002b66:	00054783          	lbu	a5,0(a0)
    3f002b6a:	fe078693          	addi	a3,a5,-32
    3f002b6e:	0007871b          	sext.w	a4,a5
    3f002b72:	c681                	beqz	a3,3f002b7a <atol+0x14>
    3f002b74:	ff770693          	addi	a3,a4,-9
    3f002b78:	ee81                	bnez	a3,3f002b90 <atol+0x2a>
    3f002b7a:	00154783          	lbu	a5,1(a0)
    3f002b7e:	0505                	addi	a0,a0,1
    3f002b80:	0007871b          	sext.w	a4,a5
    3f002b84:	fe078693          	addi	a3,a5,-32
    3f002b88:	ff770613          	addi	a2,a4,-9
    3f002b8c:	d6fd                	beqz	a3,3f002b7a <atol+0x14>
    3f002b8e:	d675                	beqz	a2,3f002b7a <atol+0x14>
    3f002b90:	fd57879b          	addiw	a5,a5,-43
    3f002b94:	0fd7f793          	andi	a5,a5,253
    3f002b98:	4805                	li	a6,1
    3f002b9a:	e791                	bnez	a5,3f002ba6 <atol+0x40>
    3f002b9c:	fd370713          	addi	a4,a4,-45
    3f002ba0:	00173813          	seqz	a6,a4
    3f002ba4:	0505                	addi	a0,a0,1
    3f002ba6:	00054783          	lbu	a5,0(a0)
    3f002baa:	03000713          	li	a4,48
    3f002bae:	00e78563          	beq	a5,a4,3f002bb8 <atol+0x52>
    3f002bb2:	e7b5                	bnez	a5,3f002c1e <atol+0xb8>
    3f002bb4:	4501                	li	a0,0
    3f002bb6:	8082                	ret
    3f002bb8:	00154783          	lbu	a5,1(a0)
    3f002bbc:	05800713          	li	a4,88
    3f002bc0:	0df7f793          	andi	a5,a5,223
    3f002bc4:	04e79d63          	bne	a5,a4,3f002c1e <atol+0xb8>
    3f002bc8:	00254783          	lbu	a5,2(a0)
    3f002bcc:	d7e5                	beqz	a5,3f002bb4 <atol+0x4e>
    3f002bce:	0509                	addi	a0,a0,2
    3f002bd0:	4681                	li	a3,0
    3f002bd2:	48a5                	li	a7,9
    3f002bd4:	4315                	li	t1,5
    3f002bd6:	a031                	j	3f002be2 <atol+0x7c>
    3f002bd8:	96b2                	add	a3,a3,a2
    3f002bda:	00154783          	lbu	a5,1(a0)
    3f002bde:	0505                	addi	a0,a0,1
    3f002be0:	cb9d                	beqz	a5,3f002c16 <atol+0xb0>
    3f002be2:	fd07861b          	addiw	a2,a5,-48
    3f002be6:	f9f7871b          	addiw	a4,a5,-97
    3f002bea:	0ff67593          	zext.b	a1,a2
    3f002bee:	0ff77713          	zext.b	a4,a4
    3f002bf2:	0692                	slli	a3,a3,0x4
    3f002bf4:	feb8f2e3          	bgeu	a7,a1,3f002bd8 <atol+0x72>
    3f002bf8:	fbf7861b          	addiw	a2,a5,-65
    3f002bfc:	fa97859b          	addiw	a1,a5,-87
    3f002c00:	0ff67613          	zext.b	a2,a2
    3f002c04:	fc97879b          	addiw	a5,a5,-55
    3f002c08:	00e36c63          	bltu	t1,a4,3f002c20 <atol+0xba>
    3f002c0c:	00154783          	lbu	a5,1(a0)
    3f002c10:	0505                	addi	a0,a0,1
    3f002c12:	96ae                	add	a3,a3,a1
    3f002c14:	f7f9                	bnez	a5,3f002be2 <atol+0x7c>
    3f002c16:	41000533          	neg	a0,a6
    3f002c1a:	8d75                	and	a0,a0,a3
    3f002c1c:	8082                	ret
    3f002c1e:	a001                	j	3f002c1e <atol+0xb8>
    3f002c20:	f8c36ae3          	bltu	t1,a2,3f002bb4 <atol+0x4e>
    3f002c24:	96be                	add	a3,a3,a5
    3f002c26:	bf55                	j	3f002bda <atol+0x74>

000000003f002c28 <add_to_free_list>:
    3f002c28:	a781b783          	ld	a5,-1416(gp) # 3f003048 <free_head>
    3f002c2c:	00053823          	sd	zero,16(a0)
    3f002c30:	e51c                	sd	a5,8(a0)
    3f002c32:	cf91                	beqz	a5,3f002c4e <add_to_free_list+0x26>
    3f002c34:	00a7fc63          	bgeu	a5,a0,3f002c4c <add_to_free_list+0x24>
    3f002c38:	873e                	mv	a4,a5
    3f002c3a:	679c                	ld	a5,8(a5)
    3f002c3c:	cf89                	beqz	a5,3f002c56 <add_to_free_list+0x2e>
    3f002c3e:	fea7ede3          	bltu	a5,a0,3f002c38 <add_to_free_list+0x10>
    3f002c42:	e51c                	sd	a5,8(a0)
    3f002c44:	e918                	sd	a4,16(a0)
    3f002c46:	eb88                	sd	a0,16(a5)
    3f002c48:	e708                	sd	a0,8(a4)
    3f002c4a:	8082                	ret
    3f002c4c:	eb88                	sd	a0,16(a5)
    3f002c4e:	e51c                	sd	a5,8(a0)
    3f002c50:	a6a1bc23          	sd	a0,-1416(gp) # 3f003048 <free_head>
    3f002c54:	8082                	ret
    3f002c56:	00053423          	sd	zero,8(a0)
    3f002c5a:	e918                	sd	a4,16(a0)
    3f002c5c:	00a03823          	sd	a0,16(zero) # 10 <buf.2+0x10>
    3f002c60:	9002                	ebreak

000000003f002c62 <malloc_stats>:
    3f002c62:	1141                	addi	sp,sp,-16
    3f002c64:	e022                	sd	s0,0(sp)
    3f002c66:	a781b403          	ld	s0,-1416(gp) # 3f003048 <free_head>
    3f002c6a:	e406                	sd	ra,8(sp)
    3f002c6c:	cc01                	beqz	s0,3f002c84 <malloc_stats+0x22>
    3f002c6e:	6400                	ld	s0,8(s0)
    3f002c70:	00000517          	auipc	a0,0x0
    3f002c74:	21850513          	addi	a0,a0,536 # 3f002e88 <abort+0xc6>
    3f002c78:	6010                	ld	a2,0(s0)
    3f002c7a:	01840593          	addi	a1,s0,24
    3f002c7e:	c83ff0ef          	jal	3f002900 <printf>
    3f002c82:	b7f5                	j	3f002c6e <malloc_stats+0xc>
    3f002c84:	4581                	li	a1,0
    3f002c86:	00000517          	auipc	a0,0x0
    3f002c8a:	22a50513          	addi	a0,a0,554 # 3f002eb0 <abort+0xee>
    3f002c8e:	c73ff0ef          	jal	3f002900 <printf>
    3f002c92:	6402                	ld	s0,0(sp)
    3f002c94:	60a2                	ld	ra,8(sp)
    3f002c96:	4581                	li	a1,0
    3f002c98:	00000517          	auipc	a0,0x0
    3f002c9c:	23850513          	addi	a0,a0,568 # 3f002ed0 <abort+0x10e>
    3f002ca0:	0141                	addi	sp,sp,16
    3f002ca2:	b9b9                	j	3f002900 <printf>

000000003f002ca4 <malloc>:
    3f002ca4:	cd21                	beqz	a0,3f002cfc <malloc+0x58>
    3f002ca6:	a781b783          	ld	a5,-1416(gp) # 3f003048 <free_head>
    3f002caa:	c79d                	beqz	a5,3f002cd8 <malloc+0x34>
    3f002cac:	050d                	addi	a0,a0,3
    3f002cae:	9971                	andi	a0,a0,-4
    3f002cb0:	a011                	j	3f002cb4 <malloc+0x10>
    3f002cb2:	c39d                	beqz	a5,3f002cd8 <malloc+0x34>
    3f002cb4:	6398                	ld	a4,0(a5)
    3f002cb6:	86be                	mv	a3,a5
    3f002cb8:	679c                	ld	a5,8(a5)
    3f002cba:	fea76ce3          	bltu	a4,a0,3f002cb2 <malloc+0xe>
    3f002cbe:	01850613          	addi	a2,a0,24
    3f002cc2:	00e66d63          	bltu	a2,a4,3f002cdc <malloc+0x38>
    3f002cc6:	6a98                	ld	a4,16(a3)
    3f002cc8:	c71d                	beqz	a4,3f002cf6 <malloc+0x52>
    3f002cca:	8636                	mv	a2,a3
    3f002ccc:	cb9d                	beqz	a5,3f002d02 <malloc+0x5e>
    3f002cce:	a6f1bc23          	sd	a5,-1416(gp) # 3f003048 <free_head>
    3f002cd2:	eb98                	sd	a4,16(a5)
    3f002cd4:	01860793          	addi	a5,a2,24
    3f002cd8:	853e                	mv	a0,a5
    3f002cda:	8082                	ret
    3f002cdc:	8f09                	sub	a4,a4,a0
    3f002cde:	9636                	add	a2,a2,a3
    3f002ce0:	1721                	addi	a4,a4,-24
    3f002ce2:	e61c                	sd	a5,8(a2)
    3f002ce4:	e218                	sd	a4,0(a2)
    3f002ce6:	ea14                	sd	a3,16(a2)
    3f002ce8:	e690                	sd	a2,8(a3)
    3f002cea:	661c                	ld	a5,8(a2)
    3f002cec:	e288                	sd	a0,0(a3)
    3f002cee:	cb91                	beqz	a5,3f002d02 <malloc+0x5e>
    3f002cf0:	eb90                	sd	a2,16(a5)
    3f002cf2:	6a18                	ld	a4,16(a2)
    3f002cf4:	ff69                	bnez	a4,3f002cce <malloc+0x2a>
    3f002cf6:	00f03423          	sd	a5,8(zero) # 8 <buf.2+0x8>
    3f002cfa:	9002                	ebreak
    3f002cfc:	4781                	li	a5,0
    3f002cfe:	853e                	mv	a0,a5
    3f002d00:	8082                	ret
    3f002d02:	a601bc23          	sd	zero,-1416(gp) # 3f003048 <free_head>
    3f002d06:	01860793          	addi	a5,a2,24
    3f002d0a:	b7f9                	j	3f002cd8 <malloc+0x34>

000000003f002d0c <free>:
    3f002d0c:	c129                	beqz	a0,3f002d4e <free+0x42>
    3f002d0e:	1141                	addi	sp,sp,-16
    3f002d10:	1521                	addi	a0,a0,-24
    3f002d12:	e406                	sd	ra,8(sp)
    3f002d14:	f15ff0ef          	jal	3f002c28 <add_to_free_list>
    3f002d18:	a781b703          	ld	a4,-1416(gp) # 3f003048 <free_head>
    3f002d1c:	cf01                	beqz	a4,3f002d34 <free+0x28>
    3f002d1e:	671c                	ld	a5,8(a4)
    3f002d20:	cb91                	beqz	a5,3f002d34 <free+0x28>
    3f002d22:	6310                	ld	a2,0(a4)
    3f002d24:	00c706b3          	add	a3,a4,a2
    3f002d28:	06e1                	addi	a3,a3,24
    3f002d2a:	00d78863          	beq	a5,a3,3f002d3a <free+0x2e>
    3f002d2e:	873e                	mv	a4,a5
    3f002d30:	671c                	ld	a5,8(a4)
    3f002d32:	fbe5                	bnez	a5,3f002d22 <free+0x16>
    3f002d34:	60a2                	ld	ra,8(sp)
    3f002d36:	0141                	addi	sp,sp,16
    3f002d38:	8082                	ret
    3f002d3a:	6394                	ld	a3,0(a5)
    3f002d3c:	679c                	ld	a5,8(a5)
    3f002d3e:	0661                	addi	a2,a2,24
    3f002d40:	96b2                	add	a3,a3,a2
    3f002d42:	e314                	sd	a3,0(a4)
    3f002d44:	e71c                	sd	a5,8(a4)
    3f002d46:	d7fd                	beqz	a5,3f002d34 <free+0x28>
    3f002d48:	eb98                	sd	a4,16(a5)
    3f002d4a:	873e                	mv	a4,a5
    3f002d4c:	b7d5                	j	3f002d30 <free+0x24>
    3f002d4e:	8082                	ret

000000003f002d50 <init_malloc>:
    3f002d50:	15a1                	addi	a1,a1,-24
    3f002d52:	e10c                	sd	a1,0(a0)
    3f002d54:	bdd1                	j	3f002c28 <add_to_free_list>

Disassembly of section .text.startup:

000000003f002d56 <main>:
    3f002d56:	1141                	addi	sp,sp,-16
    3f002d58:	00000517          	auipc	a0,0x0
    3f002d5c:	08050513          	addi	a0,a0,128 # 3f002dd8 <abort+0x16>
    3f002d60:	e406                	sd	ra,8(sp)
    3f002d62:	b9fff0ef          	jal	3f002900 <printf>
    3f002d66:	f14025f3          	csrr	a1,mhartid
    3f002d6a:	00000517          	auipc	a0,0x0
    3f002d6e:	07e50513          	addi	a0,a0,126 # 3f002de8 <abort+0x26>
    3f002d72:	b8fff0ef          	jal	3f002900 <printf>
    3f002d76:	00000517          	auipc	a0,0x0
    3f002d7a:	08a50513          	addi	a0,a0,138 # 3f002e00 <abort+0x3e>
    3f002d7e:	b83ff0ef          	jal	3f002900 <printf>
    3f002d82:	60a2                	ld	ra,8(sp)
    3f002d84:	4501                	li	a0,0
    3f002d86:	0141                	addi	sp,sp,16
    3f002d88:	8082                	ret
    3f002d8a:	1101                	addi	sp,sp,-32
    3f002d8c:	ec06                	sd	ra,24(sp)
    3f002d8e:	02a05063          	blez	a0,3f002dae <main+0x58>
    3f002d92:	619c                	ld	a5,0(a1)
    3f002d94:	cf89                	beqz	a5,3f002dae <main+0x58>
    3f002d96:	00000517          	auipc	a0,0x0
    3f002d9a:	0aa50513          	addi	a0,a0,170 # 3f002e40 <abort+0x7e>
    3f002d9e:	e42e                	sd	a1,8(sp)
    3f002da0:	b03ff0ef          	jal	3f0028a2 <printstr>
    3f002da4:	65a2                	ld	a1,8(sp)
    3f002da6:	6188                	ld	a0,0(a1)
    3f002da8:	afbff0ef          	jal	3f0028a2 <printstr>
    3f002dac:	a039                	j	3f002dba <main+0x64>
    3f002dae:	00000517          	auipc	a0,0x0
    3f002db2:	0aa50513          	addi	a0,a0,170 # 3f002e58 <abort+0x96>
    3f002db6:	aedff0ef          	jal	3f0028a2 <printstr>
    3f002dba:	60e2                	ld	ra,24(sp)
    3f002dbc:	557d                	li	a0,-1
    3f002dbe:	6105                	addi	sp,sp,32
    3f002dc0:	8082                	ret

Disassembly of section .text.unlikely:

000000003f002dc2 <abort>:
    3f002dc2:	10d00793          	li	a5,269
    3f002dc6:	ffffe717          	auipc	a4,0xffffe
    3f002dca:	22f73d23          	sd	a5,570(a4) # 3f001000 <tohost>
    3f002dce:	a001                	j	3f002dce <abort+0xc>

Disassembly of section .sdata:

000000003f002dd0 <__global_pointer$-0x800>:
    3f002dd0:	0000                	unimp
    3f002dd2:	4b00                	lw	s0,16(a4)
    3f002dd4:	2400                	fld	fs0,8(s0)
    3f002dd6:	4974                	lw	a3,84(a0)

Disassembly of section .rodata.str1.8:

000000003f002dd8 <.rodata.str1.8>:
    3f002dd8:	6548                	ld	a0,136(a0)
    3f002dda:	6c6c                	ld	a1,216(s0)
    3f002ddc:	52202c6f          	jal	s8,3f0052fe <__global_pointer$+0x1d2e>
    3f002de0:	5349                	li	t1,-14
    3f002de2:	21562d43          	fmadd.s	fs10,fa2,fs5,ft4,rdn
    3f002de6:	000a                	c.slli	zero,0x2
    3f002de8:	6148                	ld	a0,128(a0)
    3f002dea:	7472                	ld	s0,312(sp)
    3f002dec:	4920                	lw	s0,80(a0)
    3f002dee:	3a44                	fld	fs1,176(a2)
    3f002df0:	2520                	fld	fs0,72(a0)
    3f002df2:	646c                	ld	a1,200(s0)
    3f002df4:	000a                	c.slli	zero,0x2
	...
    3f002dfe:	0000                	unimp
    3f002e00:	6854                	ld	a3,144(s0)
    3f002e02:	7369                	lui	t1,0xffffa
    3f002e04:	6920                	ld	s0,80(a0)
    3f002e06:	20612073          	csrs	0x206,sp
    3f002e0a:	4952                	lw	s2,20(sp)
    3f002e0c:	562d4353          	.insn	4, 0x562d4353
    3f002e10:	7420                	ld	s0,104(s0)
    3f002e12:	7365                	lui	t1,0xffff9
    3f002e14:	2074                	fld	fa3,192(s0)
    3f002e16:	7270                	ld	a2,224(a2)
    3f002e18:	6172676f          	jal	a4,3f029c2e <__global_pointer$+0x2665e>
    3f002e1c:	2e6d                	addiw	t3,t3,27
    3f002e1e:	000a                	c.slli	zero,0x2
    3f002e20:	6e28                	ld	a0,88(a2)
    3f002e22:	6c75                	lui	s8,0x1d
    3f002e24:	296c                	fld	fa1,208(a0)
    3f002e26:	0000                	unimp
    3f002e28:	636d                	lui	t1,0x1b
    3f002e2a:	6379                	lui	t1,0x1e
    3f002e2c:	656c                	ld	a1,200(a0)
    3f002e2e:	0000                	unimp
    3f002e30:	696d                	lui	s2,0x1b
    3f002e32:	736e                	ld	t1,248(sp)
    3f002e34:	7274                	ld	a3,224(a2)
    3f002e36:	7465                	lui	s0,0xffff9
	...
    3f002e40:	6d49                	lui	s10,0x12
    3f002e42:	6c70                	ld	a2,216(s0)
    3f002e44:	6d65                	lui	s10,0x19
    3f002e46:	6e65                	lui	t3,0x19
    3f002e48:	2074                	fld	fa3,192(s0)
    3f002e4a:	616d                	addi	sp,sp,240
    3f002e4c:	6e69                	lui	t3,0x1a
    3f002e4e:	2928                	fld	fa0,80(a0)
    3f002e50:	0a2e                	slli	s4,s4,0xb
    3f002e52:	0000                	unimp
    3f002e54:	0000                	unimp
    3f002e56:	0000                	unimp
    3f002e58:	6f4e                	ld	t5,208(sp)
    3f002e5a:	7020                	ld	s0,96(s0)
    3f002e5c:	6f72                	ld	t5,280(sp)
    3f002e5e:	6d617267          	.insn	4, 0x6d617267
    3f002e62:	6e20                	ld	s0,88(a2)
    3f002e64:	6d61                	lui	s10,0x18
    3f002e66:	2065                	.insn	2, 0x2065
    3f002e68:	7270                	ld	a2,224(a2)
    3f002e6a:	6469766f          	jal	a2,3f09a4b0 <__global_pointer$+0x96ee0>
    3f002e6e:	6465                	lui	s0,0x19
    3f002e70:	0a2e                	slli	s4,s4,0xb
    3f002e72:	0000                	unimp
    3f002e74:	0000                	unimp
    3f002e76:	0000                	unimp
    3f002e78:	7325                	lui	t1,0xfffe9
    3f002e7a:	203a                	fld	ft0,392(sp)
    3f002e7c:	6c25                	lui	s8,0x9
    3f002e7e:	0a75                	addi	s4,s4,29
	...
    3f002e88:	2d2d                	addiw	s10,s10,11 # 1800b <buflen.1+0x17fcb>
    3f002e8a:	203e                	fld	ft0,456(sp)
    3f002e8c:	6c62                	ld	s8,24(sp)
    3f002e8e:	206b636f          	jal	t1,3f0b9094 <__global_pointer$+0xb5ac4>
    3f002e92:	6461                	lui	s0,0x18
    3f002e94:	7264                	ld	s1,224(a2)
    3f002e96:	203a                	fld	ft0,392(sp)
    3f002e98:	7025                	c.lui	zero,0xfffe9
    3f002e9a:	202c                	fld	fa1,64(s0)
    3f002e9c:	657a6973          	csrrsi	s2,hviprio2h,20
    3f002ea0:	203a                	fld	ft0,392(sp)
    3f002ea2:	7a25                	lui	s4,0xfffe9
    3f002ea4:	2075                	.insn	2, 0x2075
    3f002ea6:	7962                	ld	s2,56(sp)
    3f002ea8:	6574                	ld	a3,200(a0)
    3f002eaa:	00000a73          	.insn	4, 0x0a73
    3f002eae:	0000                	unimp
    3f002eb0:	6f54                	ld	a3,152(a4)
    3f002eb2:	6174                	ld	a3,192(a0)
    3f002eb4:	206c                	fld	fa1,192(s0)
    3f002eb6:	7266                	ld	tp,120(sp)
    3f002eb8:	6565                	lui	a0,0x19
    3f002eba:	6d20                	ld	s0,88(a0)
    3f002ebc:	6d65                	lui	s10,0x19
    3f002ebe:	3a79726f          	jal	tp,3f09aa64 <__global_pointer$+0x97494>
    3f002ec2:	2520                	fld	fs0,72(a0)
    3f002ec4:	757a                	ld	a0,440(sp)
    3f002ec6:	6220                	ld	s0,64(a2)
    3f002ec8:	7479                	lui	s0,0xffffe
    3f002eca:	7365                	lui	t1,0xffff9
    3f002ecc:	000a                	c.slli	zero,0x2
    3f002ece:	0000                	unimp
    3f002ed0:	6f54                	ld	a3,152(a4)
    3f002ed2:	6174                	ld	a3,192(a0)
    3f002ed4:	206c                	fld	fa1,192(s0)
    3f002ed6:	7266                	ld	tp,120(sp)
    3f002ed8:	6565                	lui	a0,0x19
    3f002eda:	6220                	ld	s0,64(a2)
    3f002edc:	6f6c                	ld	a1,216(a4)
    3f002ede:	3a736b63          	bltu	t1,t2,3f003294 <_tbss_end+0x1d0>
    3f002ee2:	2520                	fld	fs0,72(a0)
    3f002ee4:	757a                	ld	a0,440(sp)
    3f002ee6:	000a                	c.slli	zero,0x2

Disassembly of section .rodata:

000000003f002ee8 <.rodata>:
    3f002ee8:	f568                	sd	a0,232(a0)
    3f002eea:	ffff                	.insn	2, 0xffff
    3f002eec:	f50c                	sd	a1,40(a0)
    3f002eee:	ffff                	.insn	2, 0xffff
    3f002ef0:	f504                	sd	s1,40(a0)
    3f002ef2:	ffff                	.insn	2, 0xffff
    3f002ef4:	f50c                	sd	a1,40(a0)
    3f002ef6:	ffff                	.insn	2, 0xffff
    3f002ef8:	f50c                	sd	a1,40(a0)
    3f002efa:	ffff                	.insn	2, 0xffff
    3f002efc:	f50c                	sd	a1,40(a0)
    3f002efe:	ffff                	.insn	2, 0xffff
    3f002f00:	f50c                	sd	a1,40(a0)
    3f002f02:	ffff                	.insn	2, 0xffff
    3f002f04:	f570                	sd	a2,232(a0)
    3f002f06:	ffff                	.insn	2, 0xffff
    3f002f08:	f50c                	sd	a1,40(a0)
    3f002f0a:	ffff                	.insn	2, 0xffff
    3f002f0c:	f50c                	sd	a1,40(a0)
    3f002f0e:	ffff                	.insn	2, 0xffff
    3f002f10:	f518                	sd	a4,40(a0)
    3f002f12:	ffff                	.insn	2, 0xffff
    3f002f14:	f706                	sd	ra,424(sp)
    3f002f16:	ffff                	.insn	2, 0xffff
    3f002f18:	f50c                	sd	a1,40(a0)
    3f002f1a:	ffff                	.insn	2, 0xffff
    3f002f1c:	f518                	sd	a4,40(a0)
    3f002f1e:	ffff                	.insn	2, 0xffff
    3f002f20:	f522                	sd	s0,168(sp)
    3f002f22:	ffff                	.insn	2, 0xffff
    3f002f24:	f522                	sd	s0,168(sp)
    3f002f26:	ffff                	.insn	2, 0xffff
    3f002f28:	f522                	sd	s0,168(sp)
    3f002f2a:	ffff                	.insn	2, 0xffff
    3f002f2c:	f522                	sd	s0,168(sp)
    3f002f2e:	ffff                	.insn	2, 0xffff
    3f002f30:	f522                	sd	s0,168(sp)
    3f002f32:	ffff                	.insn	2, 0xffff
    3f002f34:	f522                	sd	s0,168(sp)
    3f002f36:	ffff                	.insn	2, 0xffff
    3f002f38:	f522                	sd	s0,168(sp)
    3f002f3a:	ffff                	.insn	2, 0xffff
    3f002f3c:	f522                	sd	s0,168(sp)
    3f002f3e:	ffff                	.insn	2, 0xffff
    3f002f40:	f522                	sd	s0,168(sp)
    3f002f42:	ffff                	.insn	2, 0xffff
    3f002f44:	f50c                	sd	a1,40(a0)
    3f002f46:	ffff                	.insn	2, 0xffff
    3f002f48:	f50c                	sd	a1,40(a0)
    3f002f4a:	ffff                	.insn	2, 0xffff
    3f002f4c:	f50c                	sd	a1,40(a0)
    3f002f4e:	ffff                	.insn	2, 0xffff
    3f002f50:	f50c                	sd	a1,40(a0)
    3f002f52:	ffff                	.insn	2, 0xffff
    3f002f54:	f50c                	sd	a1,40(a0)
    3f002f56:	ffff                	.insn	2, 0xffff
    3f002f58:	f50c                	sd	a1,40(a0)
    3f002f5a:	ffff                	.insn	2, 0xffff
    3f002f5c:	f50c                	sd	a1,40(a0)
    3f002f5e:	ffff                	.insn	2, 0xffff
    3f002f60:	f50c                	sd	a1,40(a0)
    3f002f62:	ffff                	.insn	2, 0xffff
    3f002f64:	f50c                	sd	a1,40(a0)
    3f002f66:	ffff                	.insn	2, 0xffff
    3f002f68:	f50c                	sd	a1,40(a0)
    3f002f6a:	ffff                	.insn	2, 0xffff
    3f002f6c:	f50c                	sd	a1,40(a0)
    3f002f6e:	ffff                	.insn	2, 0xffff
    3f002f70:	f50c                	sd	a1,40(a0)
    3f002f72:	ffff                	.insn	2, 0xffff
    3f002f74:	f50c                	sd	a1,40(a0)
    3f002f76:	ffff                	.insn	2, 0xffff
    3f002f78:	f50c                	sd	a1,40(a0)
    3f002f7a:	ffff                	.insn	2, 0xffff
    3f002f7c:	f50c                	sd	a1,40(a0)
    3f002f7e:	ffff                	.insn	2, 0xffff
    3f002f80:	f50c                	sd	a1,40(a0)
    3f002f82:	ffff                	.insn	2, 0xffff
    3f002f84:	f50c                	sd	a1,40(a0)
    3f002f86:	ffff                	.insn	2, 0xffff
    3f002f88:	f50c                	sd	a1,40(a0)
    3f002f8a:	ffff                	.insn	2, 0xffff
    3f002f8c:	f50c                	sd	a1,40(a0)
    3f002f8e:	ffff                	.insn	2, 0xffff
    3f002f90:	f50c                	sd	a1,40(a0)
    3f002f92:	ffff                	.insn	2, 0xffff
    3f002f94:	f50c                	sd	a1,40(a0)
    3f002f96:	ffff                	.insn	2, 0xffff
    3f002f98:	f50c                	sd	a1,40(a0)
    3f002f9a:	ffff                	.insn	2, 0xffff
    3f002f9c:	f50c                	sd	a1,40(a0)
    3f002f9e:	ffff                	.insn	2, 0xffff
    3f002fa0:	f50c                	sd	a1,40(a0)
    3f002fa2:	ffff                	.insn	2, 0xffff
    3f002fa4:	f50c                	sd	a1,40(a0)
    3f002fa6:	ffff                	.insn	2, 0xffff
    3f002fa8:	f50c                	sd	a1,40(a0)
    3f002faa:	ffff                	.insn	2, 0xffff
    3f002fac:	f50c                	sd	a1,40(a0)
    3f002fae:	ffff                	.insn	2, 0xffff
    3f002fb0:	f50c                	sd	a1,40(a0)
    3f002fb2:	ffff                	.insn	2, 0xffff
    3f002fb4:	f50c                	sd	a1,40(a0)
    3f002fb6:	ffff                	.insn	2, 0xffff
    3f002fb8:	f50c                	sd	a1,40(a0)
    3f002fba:	ffff                	.insn	2, 0xffff
    3f002fbc:	f50c                	sd	a1,40(a0)
    3f002fbe:	ffff                	.insn	2, 0xffff
    3f002fc0:	f50c                	sd	a1,40(a0)
    3f002fc2:	ffff                	.insn	2, 0xffff
    3f002fc4:	f50c                	sd	a1,40(a0)
    3f002fc6:	ffff                	.insn	2, 0xffff
    3f002fc8:	f50c                	sd	a1,40(a0)
    3f002fca:	ffff                	.insn	2, 0xffff
    3f002fcc:	f50c                	sd	a1,40(a0)
    3f002fce:	ffff                	.insn	2, 0xffff
    3f002fd0:	f50c                	sd	a1,40(a0)
    3f002fd2:	ffff                	.insn	2, 0xffff
    3f002fd4:	f50c                	sd	a1,40(a0)
    3f002fd6:	ffff                	.insn	2, 0xffff
    3f002fd8:	f50c                	sd	a1,40(a0)
    3f002fda:	ffff                	.insn	2, 0xffff
    3f002fdc:	f50c                	sd	a1,40(a0)
    3f002fde:	ffff                	.insn	2, 0xffff
    3f002fe0:	f50c                	sd	a1,40(a0)
    3f002fe2:	ffff                	.insn	2, 0xffff
    3f002fe4:	f50c                	sd	a1,40(a0)
    3f002fe6:	ffff                	.insn	2, 0xffff
    3f002fe8:	f610                	sd	a2,40(a2)
    3f002fea:	ffff                	.insn	2, 0xffff
    3f002fec:	f690                	sd	a2,40(a3)
    3f002fee:	ffff                	.insn	2, 0xffff
    3f002ff0:	f50c                	sd	a1,40(a0)
    3f002ff2:	ffff                	.insn	2, 0xffff
    3f002ff4:	f50c                	sd	a1,40(a0)
    3f002ff6:	ffff                	.insn	2, 0xffff
    3f002ff8:	f50c                	sd	a1,40(a0)
    3f002ffa:	ffff                	.insn	2, 0xffff
    3f002ffc:	f6b0                	sd	a2,104(a3)
    3f002ffe:	ffff                	.insn	2, 0xffff
    3f003000:	f50c                	sd	a1,40(a0)
    3f003002:	ffff                	.insn	2, 0xffff
    3f003004:	f50c                	sd	a1,40(a0)
    3f003006:	ffff                	.insn	2, 0xffff
    3f003008:	f50c                	sd	a1,40(a0)
    3f00300a:	ffff                	.insn	2, 0xffff
    3f00300c:	f6fc                	sd	a5,232(a3)
    3f00300e:	ffff                	.insn	2, 0xffff
    3f003010:	f50c                	sd	a1,40(a0)
    3f003012:	ffff                	.insn	2, 0xffff
    3f003014:	f50c                	sd	a1,40(a0)
    3f003016:	ffff                	.insn	2, 0xffff
    3f003018:	f8c4                	sd	s1,176(s1)
    3f00301a:	ffff                	.insn	2, 0xffff
    3f00301c:	f61c                	sd	a5,40(a2)
    3f00301e:	ffff                	.insn	2, 0xffff
    3f003020:	f50c                	sd	a1,40(a0)
    3f003022:	ffff                	.insn	2, 0xffff
    3f003024:	f50c                	sd	a1,40(a0)
    3f003026:	ffff                	.insn	2, 0xffff
    3f003028:	f63a                	sd	a4,296(sp)
    3f00302a:	ffff                	.insn	2, 0xffff
    3f00302c:	f50c                	sd	a1,40(a0)
    3f00302e:	ffff                	.insn	2, 0xffff
    3f003030:	f8d6                	sd	s5,112(sp)
    3f003032:	ffff                	.insn	2, 0xffff
    3f003034:	f50c                	sd	a1,40(a0)
    3f003036:	ffff                	.insn	2, 0xffff
    3f003038:	f50c                	sd	a1,40(a0)
    3f00303a:	ffff                	.insn	2, 0xffff
    3f00303c:	f57e                	sd	t6,168(sp)
    3f00303e:	ffff                	.insn	2, 0xffff

Disassembly of section .comment:

0000000000000000 <.comment>:
   0:	3a434347          	fmsub.d	ft6,ft6,ft4,ft7,rmm
   4:	2820                	fld	fs0,80(s0)
   6:	33623167          	.insn	4, 0x33623167
   a:	3630                	fld	fa2,104(a2)
   c:	3330                	fld	fa2,96(a4)
   e:	6139                	addi	sp,sp,448
  10:	20293463          	.insn	4, 0x20293463
  14:	3531                	addiw	a0,a0,-20 # 18fec <buflen.1+0x18fac>
  16:	312e                	fld	ft2,232(sp)
  18:	302e                	fld	ft0,232(sp)
	...

Disassembly of section .riscv.attributes:

0000000000000000 <.riscv.attributes>:
   0:	6b41                	lui	s6,0x10
   2:	0000                	unimp
   4:	7200                	ld	s0,32(a2)
   6:	7369                	lui	t1,0xffffa
   8:	01007663          	bgeu	zero,a6,14 <buf.2+0x14>
   c:	0061                	c.nop	24
   e:	0000                	unimp
  10:	1004                	addi	s1,sp,32
  12:	7205                	lui	tp,0xfffe1
  14:	3676                	fld	fa2,376(sp)
  16:	6934                	ld	a3,80(a0)
  18:	7032                	.insn	2, 0x7032
  1a:	5f31                	li	t5,-20
  1c:	326d                	addiw	tp,tp,-5 # fffffffffffe0ffb <__global_pointer$+0xffffffffc0fdda2b>
  1e:	3070                	fld	fa2,224(s0)
  20:	615f 7032 5f31      	.insn	6, 0x5f317032615f
  26:	3266                	fld	ft4,120(sp)
  28:	3270                	fld	fa2,224(a2)
  2a:	645f 7032 5f32      	.insn	6, 0x5f327032645f
  30:	30703263          	.insn	4, 0x30703263
  34:	7a5f 6369 7273      	.insn	6, 0x727363697a5f
  3a:	7032                	.insn	2, 0x7032
  3c:	5f30                	lw	a2,120(a4)
  3e:	6d7a                	ld	s10,408(sp)
  40:	756d                	lui	a0,0xffffb
  42:	316c                	fld	fa1,224(a0)
  44:	3070                	fld	fa2,224(s0)
  46:	7a5f 6161 6f6d      	.insn	6, 0x6f6d61617a5f
  4c:	7031                	c.lui	zero,0xfffec
  4e:	5f30                	lw	a2,120(a4)
  50:	617a                	ld	sp,408(sp)
  52:	726c                	ld	a1,224(a2)
  54:	70316373          	csrrsi	t1,0x703,2
  58:	5f30                	lw	a2,120(a4)
  5a:	637a                	ld	t1,408(sp)
  5c:	3161                	addiw	sp,sp,-8
  5e:	3070                	fld	fa2,224(s0)
  60:	7a5f 6463 7031      	.insn	6, 0x703164637a5f
  66:	0030                	addi	a2,sp,8
  68:	0108                	addi	a0,sp,128
  6a:	0b0a                	slli	s6,s6,0x2
